   1              		.syntax unified
   2              		.cpu cortex-m3
   3              		.fpu softvfp
   4              		.eabi_attribute 20, 1
   5              		.eabi_attribute 21, 1
   6              		.eabi_attribute 23, 3
   7              		.eabi_attribute 24, 1
   8              		.eabi_attribute 25, 1
   9              		.eabi_attribute 26, 1
  10              		.eabi_attribute 30, 4
  11              		.eabi_attribute 18, 4
  12              		.thumb
  13              		.file	"stm32f10x_flash.c"
  21              	.Ltext0:
  22              		.section	.text.FLASH_SetLatency,"ax",%progbits
  23              		.align	1
  24              		.global	FLASH_SetLatency
  25              		.thumb
  26              		.thumb_func
  28              	FLASH_SetLatency:
  29              	.LFB29:
  30              		.file 1 "../Libraries//STM32F10x_StdPeriph_Driver/src/stm32f10x_flash.c"
   1:../Libraries//STM32F10x_StdPeriph_Driver/src/stm32f10x_flash.c **** /**
   2:../Libraries//STM32F10x_StdPeriph_Driver/src/stm32f10x_flash.c ****   ******************************************************************************
   3:../Libraries//STM32F10x_StdPeriph_Driver/src/stm32f10x_flash.c ****   * @file    stm32f10x_flash.c
   4:../Libraries//STM32F10x_StdPeriph_Driver/src/stm32f10x_flash.c ****   * @author  MCD Application Team
   5:../Libraries//STM32F10x_StdPeriph_Driver/src/stm32f10x_flash.c ****   * @version V3.5.0
   6:../Libraries//STM32F10x_StdPeriph_Driver/src/stm32f10x_flash.c ****   * @date    11-March-2011
   7:../Libraries//STM32F10x_StdPeriph_Driver/src/stm32f10x_flash.c ****   * @brief   This file provides all the FLASH firmware functions.
   8:../Libraries//STM32F10x_StdPeriph_Driver/src/stm32f10x_flash.c ****   ******************************************************************************
   9:../Libraries//STM32F10x_StdPeriph_Driver/src/stm32f10x_flash.c ****   * @attention
  10:../Libraries//STM32F10x_StdPeriph_Driver/src/stm32f10x_flash.c ****   *
  11:../Libraries//STM32F10x_StdPeriph_Driver/src/stm32f10x_flash.c ****   * THE PRESENT FIRMWARE WHICH IS FOR GUIDANCE ONLY AIMS AT PROVIDING CUSTOMERS
  12:../Libraries//STM32F10x_StdPeriph_Driver/src/stm32f10x_flash.c ****   * WITH CODING INFORMATION REGARDING THEIR PRODUCTS IN ORDER FOR THEM TO SAVE
  13:../Libraries//STM32F10x_StdPeriph_Driver/src/stm32f10x_flash.c ****   * TIME. AS A RESULT, STMICROELECTRONICS SHALL NOT BE HELD LIABLE FOR ANY
  14:../Libraries//STM32F10x_StdPeriph_Driver/src/stm32f10x_flash.c ****   * DIRECT, INDIRECT OR CONSEQUENTIAL DAMAGES WITH RESPECT TO ANY CLAIMS ARISING
  15:../Libraries//STM32F10x_StdPeriph_Driver/src/stm32f10x_flash.c ****   * FROM THE CONTENT OF SUCH FIRMWARE AND/OR THE USE MADE BY CUSTOMERS OF THE
  16:../Libraries//STM32F10x_StdPeriph_Driver/src/stm32f10x_flash.c ****   * CODING INFORMATION CONTAINED HEREIN IN CONNECTION WITH THEIR PRODUCTS.
  17:../Libraries//STM32F10x_StdPeriph_Driver/src/stm32f10x_flash.c ****   *
  18:../Libraries//STM32F10x_StdPeriph_Driver/src/stm32f10x_flash.c ****   * <h2><center>&copy; COPYRIGHT 2011 STMicroelectronics</center></h2>
  19:../Libraries//STM32F10x_StdPeriph_Driver/src/stm32f10x_flash.c ****   ******************************************************************************
  20:../Libraries//STM32F10x_StdPeriph_Driver/src/stm32f10x_flash.c ****   */
  21:../Libraries//STM32F10x_StdPeriph_Driver/src/stm32f10x_flash.c **** 
  22:../Libraries//STM32F10x_StdPeriph_Driver/src/stm32f10x_flash.c **** /* Includes ------------------------------------------------------------------*/
  23:../Libraries//STM32F10x_StdPeriph_Driver/src/stm32f10x_flash.c **** #include "stm32f10x_flash.h"
  24:../Libraries//STM32F10x_StdPeriph_Driver/src/stm32f10x_flash.c **** 
  25:../Libraries//STM32F10x_StdPeriph_Driver/src/stm32f10x_flash.c **** /** @addtogroup STM32F10x_StdPeriph_Driver
  26:../Libraries//STM32F10x_StdPeriph_Driver/src/stm32f10x_flash.c ****   * @{
  27:../Libraries//STM32F10x_StdPeriph_Driver/src/stm32f10x_flash.c ****   */
  28:../Libraries//STM32F10x_StdPeriph_Driver/src/stm32f10x_flash.c **** 
  29:../Libraries//STM32F10x_StdPeriph_Driver/src/stm32f10x_flash.c **** /** @defgroup FLASH 
  30:../Libraries//STM32F10x_StdPeriph_Driver/src/stm32f10x_flash.c ****   * @brief FLASH driver modules
  31:../Libraries//STM32F10x_StdPeriph_Driver/src/stm32f10x_flash.c ****   * @{
  32:../Libraries//STM32F10x_StdPeriph_Driver/src/stm32f10x_flash.c ****   */ 
  33:../Libraries//STM32F10x_StdPeriph_Driver/src/stm32f10x_flash.c **** 
  34:../Libraries//STM32F10x_StdPeriph_Driver/src/stm32f10x_flash.c **** /** @defgroup FLASH_Private_TypesDefinitions
  35:../Libraries//STM32F10x_StdPeriph_Driver/src/stm32f10x_flash.c ****   * @{
  36:../Libraries//STM32F10x_StdPeriph_Driver/src/stm32f10x_flash.c ****   */
  37:../Libraries//STM32F10x_StdPeriph_Driver/src/stm32f10x_flash.c **** 
  38:../Libraries//STM32F10x_StdPeriph_Driver/src/stm32f10x_flash.c **** /**
  39:../Libraries//STM32F10x_StdPeriph_Driver/src/stm32f10x_flash.c ****   * @}
  40:../Libraries//STM32F10x_StdPeriph_Driver/src/stm32f10x_flash.c ****   */ 
  41:../Libraries//STM32F10x_StdPeriph_Driver/src/stm32f10x_flash.c **** 
  42:../Libraries//STM32F10x_StdPeriph_Driver/src/stm32f10x_flash.c **** /** @defgroup FLASH_Private_Defines
  43:../Libraries//STM32F10x_StdPeriph_Driver/src/stm32f10x_flash.c ****   * @{
  44:../Libraries//STM32F10x_StdPeriph_Driver/src/stm32f10x_flash.c ****   */ 
  45:../Libraries//STM32F10x_StdPeriph_Driver/src/stm32f10x_flash.c **** 
  46:../Libraries//STM32F10x_StdPeriph_Driver/src/stm32f10x_flash.c **** /* Flash Access Control Register bits */
  47:../Libraries//STM32F10x_StdPeriph_Driver/src/stm32f10x_flash.c **** #define ACR_LATENCY_Mask         ((uint32_t)0x00000038)
  48:../Libraries//STM32F10x_StdPeriph_Driver/src/stm32f10x_flash.c **** #define ACR_HLFCYA_Mask          ((uint32_t)0xFFFFFFF7)
  49:../Libraries//STM32F10x_StdPeriph_Driver/src/stm32f10x_flash.c **** #define ACR_PRFTBE_Mask          ((uint32_t)0xFFFFFFEF)
  50:../Libraries//STM32F10x_StdPeriph_Driver/src/stm32f10x_flash.c **** 
  51:../Libraries//STM32F10x_StdPeriph_Driver/src/stm32f10x_flash.c **** /* Flash Access Control Register bits */
  52:../Libraries//STM32F10x_StdPeriph_Driver/src/stm32f10x_flash.c **** #define ACR_PRFTBS_Mask          ((uint32_t)0x00000020) 
  53:../Libraries//STM32F10x_StdPeriph_Driver/src/stm32f10x_flash.c **** 
  54:../Libraries//STM32F10x_StdPeriph_Driver/src/stm32f10x_flash.c **** /* Flash Control Register bits */
  55:../Libraries//STM32F10x_StdPeriph_Driver/src/stm32f10x_flash.c **** #define CR_PG_Set                ((uint32_t)0x00000001)
  56:../Libraries//STM32F10x_StdPeriph_Driver/src/stm32f10x_flash.c **** #define CR_PG_Reset              ((uint32_t)0x00001FFE) 
  57:../Libraries//STM32F10x_StdPeriph_Driver/src/stm32f10x_flash.c **** #define CR_PER_Set               ((uint32_t)0x00000002)
  58:../Libraries//STM32F10x_StdPeriph_Driver/src/stm32f10x_flash.c **** #define CR_PER_Reset             ((uint32_t)0x00001FFD)
  59:../Libraries//STM32F10x_StdPeriph_Driver/src/stm32f10x_flash.c **** #define CR_MER_Set               ((uint32_t)0x00000004)
  60:../Libraries//STM32F10x_StdPeriph_Driver/src/stm32f10x_flash.c **** #define CR_MER_Reset             ((uint32_t)0x00001FFB)
  61:../Libraries//STM32F10x_StdPeriph_Driver/src/stm32f10x_flash.c **** #define CR_OPTPG_Set             ((uint32_t)0x00000010)
  62:../Libraries//STM32F10x_StdPeriph_Driver/src/stm32f10x_flash.c **** #define CR_OPTPG_Reset           ((uint32_t)0x00001FEF)
  63:../Libraries//STM32F10x_StdPeriph_Driver/src/stm32f10x_flash.c **** #define CR_OPTER_Set             ((uint32_t)0x00000020)
  64:../Libraries//STM32F10x_StdPeriph_Driver/src/stm32f10x_flash.c **** #define CR_OPTER_Reset           ((uint32_t)0x00001FDF)
  65:../Libraries//STM32F10x_StdPeriph_Driver/src/stm32f10x_flash.c **** #define CR_STRT_Set              ((uint32_t)0x00000040)
  66:../Libraries//STM32F10x_StdPeriph_Driver/src/stm32f10x_flash.c **** #define CR_LOCK_Set              ((uint32_t)0x00000080)
  67:../Libraries//STM32F10x_StdPeriph_Driver/src/stm32f10x_flash.c **** 
  68:../Libraries//STM32F10x_StdPeriph_Driver/src/stm32f10x_flash.c **** /* FLASH Mask */
  69:../Libraries//STM32F10x_StdPeriph_Driver/src/stm32f10x_flash.c **** #define RDPRT_Mask               ((uint32_t)0x00000002)
  70:../Libraries//STM32F10x_StdPeriph_Driver/src/stm32f10x_flash.c **** #define WRP0_Mask                ((uint32_t)0x000000FF)
  71:../Libraries//STM32F10x_StdPeriph_Driver/src/stm32f10x_flash.c **** #define WRP1_Mask                ((uint32_t)0x0000FF00)
  72:../Libraries//STM32F10x_StdPeriph_Driver/src/stm32f10x_flash.c **** #define WRP2_Mask                ((uint32_t)0x00FF0000)
  73:../Libraries//STM32F10x_StdPeriph_Driver/src/stm32f10x_flash.c **** #define WRP3_Mask                ((uint32_t)0xFF000000)
  74:../Libraries//STM32F10x_StdPeriph_Driver/src/stm32f10x_flash.c **** #define OB_USER_BFB2             ((uint16_t)0x0008)
  75:../Libraries//STM32F10x_StdPeriph_Driver/src/stm32f10x_flash.c **** 
  76:../Libraries//STM32F10x_StdPeriph_Driver/src/stm32f10x_flash.c **** /* FLASH Keys */
  77:../Libraries//STM32F10x_StdPeriph_Driver/src/stm32f10x_flash.c **** #define RDP_Key                  ((uint16_t)0x00A5)
  78:../Libraries//STM32F10x_StdPeriph_Driver/src/stm32f10x_flash.c **** #define FLASH_KEY1               ((uint32_t)0x45670123)
  79:../Libraries//STM32F10x_StdPeriph_Driver/src/stm32f10x_flash.c **** #define FLASH_KEY2               ((uint32_t)0xCDEF89AB)
  80:../Libraries//STM32F10x_StdPeriph_Driver/src/stm32f10x_flash.c **** 
  81:../Libraries//STM32F10x_StdPeriph_Driver/src/stm32f10x_flash.c **** /* FLASH BANK address */
  82:../Libraries//STM32F10x_StdPeriph_Driver/src/stm32f10x_flash.c **** #define FLASH_BANK1_END_ADDRESS   ((uint32_t)0x807FFFF)
  83:../Libraries//STM32F10x_StdPeriph_Driver/src/stm32f10x_flash.c **** 
  84:../Libraries//STM32F10x_StdPeriph_Driver/src/stm32f10x_flash.c **** /* Delay definition */   
  85:../Libraries//STM32F10x_StdPeriph_Driver/src/stm32f10x_flash.c **** #define EraseTimeout          ((uint32_t)0x000B0000)
  86:../Libraries//STM32F10x_StdPeriph_Driver/src/stm32f10x_flash.c **** #define ProgramTimeout        ((uint32_t)0x00002000)
  87:../Libraries//STM32F10x_StdPeriph_Driver/src/stm32f10x_flash.c **** /**
  88:../Libraries//STM32F10x_StdPeriph_Driver/src/stm32f10x_flash.c ****   * @}
  89:../Libraries//STM32F10x_StdPeriph_Driver/src/stm32f10x_flash.c ****   */ 
  90:../Libraries//STM32F10x_StdPeriph_Driver/src/stm32f10x_flash.c **** 
  91:../Libraries//STM32F10x_StdPeriph_Driver/src/stm32f10x_flash.c **** /** @defgroup FLASH_Private_Macros
  92:../Libraries//STM32F10x_StdPeriph_Driver/src/stm32f10x_flash.c ****   * @{
  93:../Libraries//STM32F10x_StdPeriph_Driver/src/stm32f10x_flash.c ****   */
  94:../Libraries//STM32F10x_StdPeriph_Driver/src/stm32f10x_flash.c **** 
  95:../Libraries//STM32F10x_StdPeriph_Driver/src/stm32f10x_flash.c **** /**
  96:../Libraries//STM32F10x_StdPeriph_Driver/src/stm32f10x_flash.c ****   * @}
  97:../Libraries//STM32F10x_StdPeriph_Driver/src/stm32f10x_flash.c ****   */ 
  98:../Libraries//STM32F10x_StdPeriph_Driver/src/stm32f10x_flash.c **** 
  99:../Libraries//STM32F10x_StdPeriph_Driver/src/stm32f10x_flash.c **** /** @defgroup FLASH_Private_Variables
 100:../Libraries//STM32F10x_StdPeriph_Driver/src/stm32f10x_flash.c ****   * @{
 101:../Libraries//STM32F10x_StdPeriph_Driver/src/stm32f10x_flash.c ****   */
 102:../Libraries//STM32F10x_StdPeriph_Driver/src/stm32f10x_flash.c **** 
 103:../Libraries//STM32F10x_StdPeriph_Driver/src/stm32f10x_flash.c **** /**
 104:../Libraries//STM32F10x_StdPeriph_Driver/src/stm32f10x_flash.c ****   * @}
 105:../Libraries//STM32F10x_StdPeriph_Driver/src/stm32f10x_flash.c ****   */ 
 106:../Libraries//STM32F10x_StdPeriph_Driver/src/stm32f10x_flash.c **** 
 107:../Libraries//STM32F10x_StdPeriph_Driver/src/stm32f10x_flash.c **** /** @defgroup FLASH_Private_FunctionPrototypes
 108:../Libraries//STM32F10x_StdPeriph_Driver/src/stm32f10x_flash.c ****   * @{
 109:../Libraries//STM32F10x_StdPeriph_Driver/src/stm32f10x_flash.c ****   */
 110:../Libraries//STM32F10x_StdPeriph_Driver/src/stm32f10x_flash.c ****   
 111:../Libraries//STM32F10x_StdPeriph_Driver/src/stm32f10x_flash.c **** /**
 112:../Libraries//STM32F10x_StdPeriph_Driver/src/stm32f10x_flash.c ****   * @}
 113:../Libraries//STM32F10x_StdPeriph_Driver/src/stm32f10x_flash.c ****   */
 114:../Libraries//STM32F10x_StdPeriph_Driver/src/stm32f10x_flash.c **** 
 115:../Libraries//STM32F10x_StdPeriph_Driver/src/stm32f10x_flash.c **** /** @defgroup FLASH_Private_Functions
 116:../Libraries//STM32F10x_StdPeriph_Driver/src/stm32f10x_flash.c ****   * @{
 117:../Libraries//STM32F10x_StdPeriph_Driver/src/stm32f10x_flash.c ****   */
 118:../Libraries//STM32F10x_StdPeriph_Driver/src/stm32f10x_flash.c **** 
 119:../Libraries//STM32F10x_StdPeriph_Driver/src/stm32f10x_flash.c **** /**
 120:../Libraries//STM32F10x_StdPeriph_Driver/src/stm32f10x_flash.c **** @code  
 121:../Libraries//STM32F10x_StdPeriph_Driver/src/stm32f10x_flash.c ****  
 122:../Libraries//STM32F10x_StdPeriph_Driver/src/stm32f10x_flash.c ****  This driver provides functions to configure and program the Flash memory of all STM32F10x devices,
 123:../Libraries//STM32F10x_StdPeriph_Driver/src/stm32f10x_flash.c ****  including the latest STM32F10x_XL density devices. 
 124:../Libraries//STM32F10x_StdPeriph_Driver/src/stm32f10x_flash.c **** 
 125:../Libraries//STM32F10x_StdPeriph_Driver/src/stm32f10x_flash.c ****  STM32F10x_XL devices feature up to 1 Mbyte with dual bank architecture for read-while-write (RWW) 
 126:../Libraries//STM32F10x_StdPeriph_Driver/src/stm32f10x_flash.c ****     - bank1: fixed size of 512 Kbytes (256 pages of 2Kbytes each)
 127:../Libraries//STM32F10x_StdPeriph_Driver/src/stm32f10x_flash.c ****     - bank2: up to 512 Kbytes (up to 256 pages of 2Kbytes each)
 128:../Libraries//STM32F10x_StdPeriph_Driver/src/stm32f10x_flash.c ****  While other STM32F10x devices features only one bank with memory up to 512 Kbytes.
 129:../Libraries//STM32F10x_StdPeriph_Driver/src/stm32f10x_flash.c **** 
 130:../Libraries//STM32F10x_StdPeriph_Driver/src/stm32f10x_flash.c ****  In version V3.3.0, some functions were updated and new ones were added to support
 131:../Libraries//STM32F10x_StdPeriph_Driver/src/stm32f10x_flash.c ****  STM32F10x_XL devices. Thus some functions manages all devices, while other are 
 132:../Libraries//STM32F10x_StdPeriph_Driver/src/stm32f10x_flash.c ****  dedicated for XL devices only.
 133:../Libraries//STM32F10x_StdPeriph_Driver/src/stm32f10x_flash.c ****  
 134:../Libraries//STM32F10x_StdPeriph_Driver/src/stm32f10x_flash.c ****  The table below presents the list of available functions depending on the used STM32F10x devices. 
 135:../Libraries//STM32F10x_StdPeriph_Driver/src/stm32f10x_flash.c ****       
 136:../Libraries//STM32F10x_StdPeriph_Driver/src/stm32f10x_flash.c ****    ***************************************************
 137:../Libraries//STM32F10x_StdPeriph_Driver/src/stm32f10x_flash.c ****    * Legacy functions used for all STM32F10x devices *
 138:../Libraries//STM32F10x_StdPeriph_Driver/src/stm32f10x_flash.c ****    ***************************************************
 139:../Libraries//STM32F10x_StdPeriph_Driver/src/stm32f10x_flash.c ****    +-----------------------------------------------------------------------------------------------
 140:../Libraries//STM32F10x_StdPeriph_Driver/src/stm32f10x_flash.c ****    |       Functions prototypes         |STM32F10x_XL|Other STM32F10x|    Comments                 
 141:../Libraries//STM32F10x_StdPeriph_Driver/src/stm32f10x_flash.c ****    |                                    |   devices  |  devices      |                             
 142:../Libraries//STM32F10x_StdPeriph_Driver/src/stm32f10x_flash.c ****    |-----------------------------------------------------------------------------------------------
 143:../Libraries//STM32F10x_StdPeriph_Driver/src/stm32f10x_flash.c ****    |FLASH_SetLatency                    |    Yes     |      Yes      | No change                   
 144:../Libraries//STM32F10x_StdPeriph_Driver/src/stm32f10x_flash.c ****    |-----------------------------------------------------------------------------------------------
 145:../Libraries//STM32F10x_StdPeriph_Driver/src/stm32f10x_flash.c ****    |FLASH_HalfCycleAccessCmd            |    Yes     |      Yes      | No change                   
 146:../Libraries//STM32F10x_StdPeriph_Driver/src/stm32f10x_flash.c ****    |-----------------------------------------------------------------------------------------------
 147:../Libraries//STM32F10x_StdPeriph_Driver/src/stm32f10x_flash.c ****    |FLASH_PrefetchBufferCmd             |    Yes     |      Yes      | No change                   
 148:../Libraries//STM32F10x_StdPeriph_Driver/src/stm32f10x_flash.c ****    |-----------------------------------------------------------------------------------------------
 149:../Libraries//STM32F10x_StdPeriph_Driver/src/stm32f10x_flash.c ****    |FLASH_Unlock                        |    Yes     |      Yes      | - For STM32F10X_XL devices: 
 150:../Libraries//STM32F10x_StdPeriph_Driver/src/stm32f10x_flash.c ****    |                                    |            |               | - For other devices: unlock 
 151:../Libraries//STM32F10x_StdPeriph_Driver/src/stm32f10x_flash.c ****    |                                    |            |               |   to FLASH_UnlockBank1 funct
 152:../Libraries//STM32F10x_StdPeriph_Driver/src/stm32f10x_flash.c ****    |-----------------------------------------------------------------------------------------------
 153:../Libraries//STM32F10x_StdPeriph_Driver/src/stm32f10x_flash.c ****    |FLASH_Lock                          |    Yes     |      Yes      | - For STM32F10X_XL devices: 
 154:../Libraries//STM32F10x_StdPeriph_Driver/src/stm32f10x_flash.c ****    |                                    |            |               | - For other devices: lock Ba
 155:../Libraries//STM32F10x_StdPeriph_Driver/src/stm32f10x_flash.c ****    |                                    |            |               |   to FLASH_LockBank1 functio
 156:../Libraries//STM32F10x_StdPeriph_Driver/src/stm32f10x_flash.c ****    |-----------------------------------------------------------------------------------------------
 157:../Libraries//STM32F10x_StdPeriph_Driver/src/stm32f10x_flash.c ****    |FLASH_ErasePage                     |    Yes     |      Yes      | - For STM32F10x_XL devices: 
 158:../Libraries//STM32F10x_StdPeriph_Driver/src/stm32f10x_flash.c ****    |                                    |            |               | - For other devices: erase a
 159:../Libraries//STM32F10x_StdPeriph_Driver/src/stm32f10x_flash.c ****    |-----------------------------------------------------------------------------------------------
 160:../Libraries//STM32F10x_StdPeriph_Driver/src/stm32f10x_flash.c ****    |FLASH_EraseAllPages                 |    Yes     |      Yes      | - For STM32F10x_XL devices: 
 161:../Libraries//STM32F10x_StdPeriph_Driver/src/stm32f10x_flash.c ****    |                                    |            |               | - For other devices: erase a
 162:../Libraries//STM32F10x_StdPeriph_Driver/src/stm32f10x_flash.c ****    |-----------------------------------------------------------------------------------------------
 163:../Libraries//STM32F10x_StdPeriph_Driver/src/stm32f10x_flash.c ****    |FLASH_EraseOptionBytes              |    Yes     |      Yes      | No change                   
 164:../Libraries//STM32F10x_StdPeriph_Driver/src/stm32f10x_flash.c ****    |-----------------------------------------------------------------------------------------------
 165:../Libraries//STM32F10x_StdPeriph_Driver/src/stm32f10x_flash.c ****    |FLASH_ProgramWord                   |    Yes     |      Yes      | Updated to program up to 1MB
 166:../Libraries//STM32F10x_StdPeriph_Driver/src/stm32f10x_flash.c ****    |-----------------------------------------------------------------------------------------------
 167:../Libraries//STM32F10x_StdPeriph_Driver/src/stm32f10x_flash.c ****    |FLASH_ProgramHalfWord               |    Yes     |      Yes      | Updated to program up to 1MB
 168:../Libraries//STM32F10x_StdPeriph_Driver/src/stm32f10x_flash.c ****    |-----------------------------------------------------------------------------------------------
 169:../Libraries//STM32F10x_StdPeriph_Driver/src/stm32f10x_flash.c ****    |FLASH_ProgramOptionByteData         |    Yes     |      Yes      | No change                   
 170:../Libraries//STM32F10x_StdPeriph_Driver/src/stm32f10x_flash.c ****    |-----------------------------------------------------------------------------------------------
 171:../Libraries//STM32F10x_StdPeriph_Driver/src/stm32f10x_flash.c ****    |FLASH_EnableWriteProtection         |    Yes     |      Yes      | No change                   
 172:../Libraries//STM32F10x_StdPeriph_Driver/src/stm32f10x_flash.c ****    |-----------------------------------------------------------------------------------------------
 173:../Libraries//STM32F10x_StdPeriph_Driver/src/stm32f10x_flash.c ****    |FLASH_ReadOutProtection             |    Yes     |      Yes      | No change                   
 174:../Libraries//STM32F10x_StdPeriph_Driver/src/stm32f10x_flash.c ****    |-----------------------------------------------------------------------------------------------
 175:../Libraries//STM32F10x_StdPeriph_Driver/src/stm32f10x_flash.c ****    |FLASH_UserOptionByteConfig          |    Yes     |      Yes      | No change                   
 176:../Libraries//STM32F10x_StdPeriph_Driver/src/stm32f10x_flash.c ****    |-----------------------------------------------------------------------------------------------
 177:../Libraries//STM32F10x_StdPeriph_Driver/src/stm32f10x_flash.c ****    |FLASH_GetUserOptionByte             |    Yes     |      Yes      | No change                   
 178:../Libraries//STM32F10x_StdPeriph_Driver/src/stm32f10x_flash.c ****    |-----------------------------------------------------------------------------------------------
 179:../Libraries//STM32F10x_StdPeriph_Driver/src/stm32f10x_flash.c ****    |FLASH_GetWriteProtectionOptionByte  |    Yes     |      Yes      | No change                   
 180:../Libraries//STM32F10x_StdPeriph_Driver/src/stm32f10x_flash.c ****    |-----------------------------------------------------------------------------------------------
 181:../Libraries//STM32F10x_StdPeriph_Driver/src/stm32f10x_flash.c ****    |FLASH_GetReadOutProtectionStatus    |    Yes     |      Yes      | No change                   
 182:../Libraries//STM32F10x_StdPeriph_Driver/src/stm32f10x_flash.c ****    |-----------------------------------------------------------------------------------------------
 183:../Libraries//STM32F10x_StdPeriph_Driver/src/stm32f10x_flash.c ****    |FLASH_GetPrefetchBufferStatus       |    Yes     |      Yes      | No change                   
 184:../Libraries//STM32F10x_StdPeriph_Driver/src/stm32f10x_flash.c ****    |-----------------------------------------------------------------------------------------------
 185:../Libraries//STM32F10x_StdPeriph_Driver/src/stm32f10x_flash.c ****    |FLASH_ITConfig                      |    Yes     |      Yes      | - For STM32F10x_XL devices: 
 186:../Libraries//STM32F10x_StdPeriph_Driver/src/stm32f10x_flash.c ****    |                                    |            |               | - For other devices: enable 
 187:../Libraries//STM32F10x_StdPeriph_Driver/src/stm32f10x_flash.c ****    |-----------------------------------------------------------------------------------------------
 188:../Libraries//STM32F10x_StdPeriph_Driver/src/stm32f10x_flash.c ****    |FLASH_GetFlagStatus                 |    Yes     |      Yes      | - For STM32F10x_XL devices: 
 189:../Libraries//STM32F10x_StdPeriph_Driver/src/stm32f10x_flash.c ****    |                                    |            |               | - For other devices: return 
 190:../Libraries//STM32F10x_StdPeriph_Driver/src/stm32f10x_flash.c ****    |-----------------------------------------------------------------------------------------------
 191:../Libraries//STM32F10x_StdPeriph_Driver/src/stm32f10x_flash.c ****    |FLASH_ClearFlag                     |    Yes     |      Yes      | - For STM32F10x_XL devices: 
 192:../Libraries//STM32F10x_StdPeriph_Driver/src/stm32f10x_flash.c ****    |                                    |            |               | - For other devices: clear B
 193:../Libraries//STM32F10x_StdPeriph_Driver/src/stm32f10x_flash.c ****    |-----------------------------------------------------------------------------------------------
 194:../Libraries//STM32F10x_StdPeriph_Driver/src/stm32f10x_flash.c ****    |FLASH_GetStatus                     |    Yes     |      Yes      | - Return the status of Bank1
 195:../Libraries//STM32F10x_StdPeriph_Driver/src/stm32f10x_flash.c ****    |                                    |            |               |   equivalent to FLASH_GetBan
 196:../Libraries//STM32F10x_StdPeriph_Driver/src/stm32f10x_flash.c ****    |-----------------------------------------------------------------------------------------------
 197:../Libraries//STM32F10x_StdPeriph_Driver/src/stm32f10x_flash.c ****    |FLASH_WaitForLastOperation          |    Yes     |      Yes      | - Wait for Bank1 last operat
 198:../Libraries//STM32F10x_StdPeriph_Driver/src/stm32f10x_flash.c ****    |                                    |            |               |   equivalent to: FLASH_WaitF
 199:../Libraries//STM32F10x_StdPeriph_Driver/src/stm32f10x_flash.c ****    +-----------------------------------------------------------------------------------------------
 200:../Libraries//STM32F10x_StdPeriph_Driver/src/stm32f10x_flash.c **** 
 201:../Libraries//STM32F10x_StdPeriph_Driver/src/stm32f10x_flash.c ****    ************************************************************************************************
 202:../Libraries//STM32F10x_StdPeriph_Driver/src/stm32f10x_flash.c ****    * New functions used for all STM32F10x devices to manage Bank1:                                 
 203:../Libraries//STM32F10x_StdPeriph_Driver/src/stm32f10x_flash.c ****    *   - These functions are mainly useful for STM32F10x_XL density devices, to have separate contr
 204:../Libraries//STM32F10x_StdPeriph_Driver/src/stm32f10x_flash.c ****    *   - For other devices, these functions are optional (covered by functions listed above)       
 205:../Libraries//STM32F10x_StdPeriph_Driver/src/stm32f10x_flash.c ****    ************************************************************************************************
 206:../Libraries//STM32F10x_StdPeriph_Driver/src/stm32f10x_flash.c ****    +-----------------------------------------------------------------------------------------------
 207:../Libraries//STM32F10x_StdPeriph_Driver/src/stm32f10x_flash.c ****    |       Functions prototypes         |STM32F10x_XL|Other STM32F10x|    Comments                 
 208:../Libraries//STM32F10x_StdPeriph_Driver/src/stm32f10x_flash.c ****    |                                    |   devices  |  devices      |                             
 209:../Libraries//STM32F10x_StdPeriph_Driver/src/stm32f10x_flash.c ****    |-----------------------------------------------------------------------------------------------
 210:../Libraries//STM32F10x_StdPeriph_Driver/src/stm32f10x_flash.c ****    | FLASH_UnlockBank1                  |    Yes     |      Yes      | - Unlock Bank1              
 211:../Libraries//STM32F10x_StdPeriph_Driver/src/stm32f10x_flash.c ****    |-----------------------------------------------------------------------------------------------
 212:../Libraries//STM32F10x_StdPeriph_Driver/src/stm32f10x_flash.c ****    |FLASH_LockBank1                     |    Yes     |      Yes      | - Lock Bank1                
 213:../Libraries//STM32F10x_StdPeriph_Driver/src/stm32f10x_flash.c ****    |-----------------------------------------------------------------------------------------------
 214:../Libraries//STM32F10x_StdPeriph_Driver/src/stm32f10x_flash.c ****    | FLASH_EraseAllBank1Pages           |    Yes     |      Yes      | - Erase all pages in Bank1  
 215:../Libraries//STM32F10x_StdPeriph_Driver/src/stm32f10x_flash.c ****    |-----------------------------------------------------------------------------------------------
 216:../Libraries//STM32F10x_StdPeriph_Driver/src/stm32f10x_flash.c ****    | FLASH_GetBank1Status               |    Yes     |      Yes      | - Return the status of Bank1
 217:../Libraries//STM32F10x_StdPeriph_Driver/src/stm32f10x_flash.c ****    |-----------------------------------------------------------------------------------------------
 218:../Libraries//STM32F10x_StdPeriph_Driver/src/stm32f10x_flash.c ****    | FLASH_WaitForLastBank1Operation    |    Yes     |      Yes      | - Wait for Bank1 last operat
 219:../Libraries//STM32F10x_StdPeriph_Driver/src/stm32f10x_flash.c ****    +-----------------------------------------------------------------------------------------------
 220:../Libraries//STM32F10x_StdPeriph_Driver/src/stm32f10x_flash.c **** 
 221:../Libraries//STM32F10x_StdPeriph_Driver/src/stm32f10x_flash.c ****    *****************************************************************************
 222:../Libraries//STM32F10x_StdPeriph_Driver/src/stm32f10x_flash.c ****    * New Functions used only with STM32F10x_XL density devices to manage Bank2 *
 223:../Libraries//STM32F10x_StdPeriph_Driver/src/stm32f10x_flash.c ****    *****************************************************************************
 224:../Libraries//STM32F10x_StdPeriph_Driver/src/stm32f10x_flash.c ****    +-----------------------------------------------------------------------------------------------
 225:../Libraries//STM32F10x_StdPeriph_Driver/src/stm32f10x_flash.c ****    |       Functions prototypes         |STM32F10x_XL|Other STM32F10x|    Comments                 
 226:../Libraries//STM32F10x_StdPeriph_Driver/src/stm32f10x_flash.c ****    |                                    |   devices  |  devices      |                             
 227:../Libraries//STM32F10x_StdPeriph_Driver/src/stm32f10x_flash.c ****    |-----------------------------------------------------------------------------------------------
 228:../Libraries//STM32F10x_StdPeriph_Driver/src/stm32f10x_flash.c ****    | FLASH_UnlockBank2                  |    Yes     |      No       | - Unlock Bank2              
 229:../Libraries//STM32F10x_StdPeriph_Driver/src/stm32f10x_flash.c ****    |-----------------------------------------------------------------------------------------------
 230:../Libraries//STM32F10x_StdPeriph_Driver/src/stm32f10x_flash.c ****    |FLASH_LockBank2                     |    Yes     |      No       | - Lock Bank2                
 231:../Libraries//STM32F10x_StdPeriph_Driver/src/stm32f10x_flash.c ****    |-----------------------------------------------------------------------------------------------
 232:../Libraries//STM32F10x_StdPeriph_Driver/src/stm32f10x_flash.c ****    | FLASH_EraseAllBank2Pages           |    Yes     |      No       | - Erase all pages in Bank2  
 233:../Libraries//STM32F10x_StdPeriph_Driver/src/stm32f10x_flash.c ****    |-----------------------------------------------------------------------------------------------
 234:../Libraries//STM32F10x_StdPeriph_Driver/src/stm32f10x_flash.c ****    | FLASH_GetBank2Status               |    Yes     |      No       | - Return the status of Bank2
 235:../Libraries//STM32F10x_StdPeriph_Driver/src/stm32f10x_flash.c ****    |-----------------------------------------------------------------------------------------------
 236:../Libraries//STM32F10x_StdPeriph_Driver/src/stm32f10x_flash.c ****    | FLASH_WaitForLastBank2Operation    |    Yes     |      No       | - Wait for Bank2 last operat
 237:../Libraries//STM32F10x_StdPeriph_Driver/src/stm32f10x_flash.c ****    |-----------------------------------------------------------------------------------------------
 238:../Libraries//STM32F10x_StdPeriph_Driver/src/stm32f10x_flash.c ****    | FLASH_BootConfig                   |    Yes     |      No       | - Configure to boot from Ban
 239:../Libraries//STM32F10x_StdPeriph_Driver/src/stm32f10x_flash.c ****    +-----------------------------------------------------------------------------------------------
 240:../Libraries//STM32F10x_StdPeriph_Driver/src/stm32f10x_flash.c **** @endcode
 241:../Libraries//STM32F10x_StdPeriph_Driver/src/stm32f10x_flash.c **** */
 242:../Libraries//STM32F10x_StdPeriph_Driver/src/stm32f10x_flash.c **** 
 243:../Libraries//STM32F10x_StdPeriph_Driver/src/stm32f10x_flash.c **** 
 244:../Libraries//STM32F10x_StdPeriph_Driver/src/stm32f10x_flash.c **** /**
 245:../Libraries//STM32F10x_StdPeriph_Driver/src/stm32f10x_flash.c ****   * @brief  Sets the code latency value.
 246:../Libraries//STM32F10x_StdPeriph_Driver/src/stm32f10x_flash.c ****   * @note   This function can be used for all STM32F10x devices.
 247:../Libraries//STM32F10x_StdPeriph_Driver/src/stm32f10x_flash.c ****   * @param  FLASH_Latency: specifies the FLASH Latency value.
 248:../Libraries//STM32F10x_StdPeriph_Driver/src/stm32f10x_flash.c ****   *   This parameter can be one of the following values:
 249:../Libraries//STM32F10x_StdPeriph_Driver/src/stm32f10x_flash.c ****   *     @arg FLASH_Latency_0: FLASH Zero Latency cycle
 250:../Libraries//STM32F10x_StdPeriph_Driver/src/stm32f10x_flash.c ****   *     @arg FLASH_Latency_1: FLASH One Latency cycle
 251:../Libraries//STM32F10x_StdPeriph_Driver/src/stm32f10x_flash.c ****   *     @arg FLASH_Latency_2: FLASH Two Latency cycles
 252:../Libraries//STM32F10x_StdPeriph_Driver/src/stm32f10x_flash.c ****   * @retval None
 253:../Libraries//STM32F10x_StdPeriph_Driver/src/stm32f10x_flash.c ****   */
 254:../Libraries//STM32F10x_StdPeriph_Driver/src/stm32f10x_flash.c **** void FLASH_SetLatency(uint32_t FLASH_Latency)
 255:../Libraries//STM32F10x_StdPeriph_Driver/src/stm32f10x_flash.c **** {
  31              		.loc 1 255 0
  32              		@ args = 0, pretend = 0, frame = 0
  33              		@ frame_needed = 0, uses_anonymous_args = 0
  34              		@ link register save eliminated.
  35              	.LVL0:
 256:../Libraries//STM32F10x_StdPeriph_Driver/src/stm32f10x_flash.c ****   uint32_t tmpreg = 0;
 257:../Libraries//STM32F10x_StdPeriph_Driver/src/stm32f10x_flash.c ****   
 258:../Libraries//STM32F10x_StdPeriph_Driver/src/stm32f10x_flash.c ****   /* Check the parameters */
 259:../Libraries//STM32F10x_StdPeriph_Driver/src/stm32f10x_flash.c ****   assert_param(IS_FLASH_LATENCY(FLASH_Latency));
 260:../Libraries//STM32F10x_StdPeriph_Driver/src/stm32f10x_flash.c ****   
 261:../Libraries//STM32F10x_StdPeriph_Driver/src/stm32f10x_flash.c ****   /* Read the ACR register */
 262:../Libraries//STM32F10x_StdPeriph_Driver/src/stm32f10x_flash.c ****   tmpreg = FLASH->ACR;  
  36              		.loc 1 262 0
  37 0000 034B     		ldr	r3, .L2
  38 0002 1A68     		ldr	r2, [r3, #0]
  39              	.LVL1:
 263:../Libraries//STM32F10x_StdPeriph_Driver/src/stm32f10x_flash.c ****   
 264:../Libraries//STM32F10x_StdPeriph_Driver/src/stm32f10x_flash.c ****   /* Sets the Latency value */
 265:../Libraries//STM32F10x_StdPeriph_Driver/src/stm32f10x_flash.c ****   tmpreg &= ACR_LATENCY_Mask;
  40              		.loc 1 265 0
  41 0004 02F03802 		and	r2, r2, #56
  42              	.LVL2:
 266:../Libraries//STM32F10x_StdPeriph_Driver/src/stm32f10x_flash.c ****   tmpreg |= FLASH_Latency;
  43              		.loc 1 266 0
  44 0008 40EA0202 		orr	r2, r0, r2
  45              	.LVL3:
 267:../Libraries//STM32F10x_StdPeriph_Driver/src/stm32f10x_flash.c ****   
 268:../Libraries//STM32F10x_StdPeriph_Driver/src/stm32f10x_flash.c ****   /* Write the ACR register */
 269:../Libraries//STM32F10x_StdPeriph_Driver/src/stm32f10x_flash.c ****   FLASH->ACR = tmpreg;
  46              		.loc 1 269 0
  47 000c 1A60     		str	r2, [r3, #0]
 270:../Libraries//STM32F10x_StdPeriph_Driver/src/stm32f10x_flash.c **** }
  48              		.loc 1 270 0
  49 000e 7047     		bx	lr
  50              	.L3:
  51              		.align	2
  52              	.L2:
  53 0010 00200240 		.word	1073881088
  54              	.LFE29:
  56              		.section	.text.FLASH_HalfCycleAccessCmd,"ax",%progbits
  57              		.align	1
  58              		.global	FLASH_HalfCycleAccessCmd
  59              		.thumb
  60              		.thumb_func
  62              	FLASH_HalfCycleAccessCmd:
  63              	.LFB30:
 271:../Libraries//STM32F10x_StdPeriph_Driver/src/stm32f10x_flash.c **** 
 272:../Libraries//STM32F10x_StdPeriph_Driver/src/stm32f10x_flash.c **** /**
 273:../Libraries//STM32F10x_StdPeriph_Driver/src/stm32f10x_flash.c ****   * @brief  Enables or disables the Half cycle flash access.
 274:../Libraries//STM32F10x_StdPeriph_Driver/src/stm32f10x_flash.c ****   * @note   This function can be used for all STM32F10x devices.
 275:../Libraries//STM32F10x_StdPeriph_Driver/src/stm32f10x_flash.c ****   * @param  FLASH_HalfCycleAccess: specifies the FLASH Half cycle Access mode.
 276:../Libraries//STM32F10x_StdPeriph_Driver/src/stm32f10x_flash.c ****   *   This parameter can be one of the following values:
 277:../Libraries//STM32F10x_StdPeriph_Driver/src/stm32f10x_flash.c ****   *     @arg FLASH_HalfCycleAccess_Enable: FLASH Half Cycle Enable
 278:../Libraries//STM32F10x_StdPeriph_Driver/src/stm32f10x_flash.c ****   *     @arg FLASH_HalfCycleAccess_Disable: FLASH Half Cycle Disable
 279:../Libraries//STM32F10x_StdPeriph_Driver/src/stm32f10x_flash.c ****   * @retval None
 280:../Libraries//STM32F10x_StdPeriph_Driver/src/stm32f10x_flash.c ****   */
 281:../Libraries//STM32F10x_StdPeriph_Driver/src/stm32f10x_flash.c **** void FLASH_HalfCycleAccessCmd(uint32_t FLASH_HalfCycleAccess)
 282:../Libraries//STM32F10x_StdPeriph_Driver/src/stm32f10x_flash.c **** {
  64              		.loc 1 282 0
  65              		@ args = 0, pretend = 0, frame = 0
  66              		@ frame_needed = 0, uses_anonymous_args = 0
  67              		@ link register save eliminated.
  68              	.LVL4:
 283:../Libraries//STM32F10x_StdPeriph_Driver/src/stm32f10x_flash.c ****   /* Check the parameters */
 284:../Libraries//STM32F10x_StdPeriph_Driver/src/stm32f10x_flash.c ****   assert_param(IS_FLASH_HALFCYCLEACCESS_STATE(FLASH_HalfCycleAccess));
 285:../Libraries//STM32F10x_StdPeriph_Driver/src/stm32f10x_flash.c ****   
 286:../Libraries//STM32F10x_StdPeriph_Driver/src/stm32f10x_flash.c ****   /* Enable or disable the Half cycle access */
 287:../Libraries//STM32F10x_StdPeriph_Driver/src/stm32f10x_flash.c ****   FLASH->ACR &= ACR_HLFCYA_Mask;
  69              		.loc 1 287 0
  70 0000 044B     		ldr	r3, .L5
  71 0002 1A68     		ldr	r2, [r3, #0]
  72 0004 22F00802 		bic	r2, r2, #8
  73 0008 1A60     		str	r2, [r3, #0]
 288:../Libraries//STM32F10x_StdPeriph_Driver/src/stm32f10x_flash.c ****   FLASH->ACR |= FLASH_HalfCycleAccess;
  74              		.loc 1 288 0
  75 000a 1A68     		ldr	r2, [r3, #0]
  76 000c 40EA0202 		orr	r2, r0, r2
  77 0010 1A60     		str	r2, [r3, #0]
 289:../Libraries//STM32F10x_StdPeriph_Driver/src/stm32f10x_flash.c **** }
  78              		.loc 1 289 0
  79 0012 7047     		bx	lr
  80              	.L6:
  81              		.align	2
  82              	.L5:
  83 0014 00200240 		.word	1073881088
  84              	.LFE30:
  86              		.section	.text.FLASH_PrefetchBufferCmd,"ax",%progbits
  87              		.align	1
  88              		.global	FLASH_PrefetchBufferCmd
  89              		.thumb
  90              		.thumb_func
  92              	FLASH_PrefetchBufferCmd:
  93              	.LFB31:
 290:../Libraries//STM32F10x_StdPeriph_Driver/src/stm32f10x_flash.c **** 
 291:../Libraries//STM32F10x_StdPeriph_Driver/src/stm32f10x_flash.c **** /**
 292:../Libraries//STM32F10x_StdPeriph_Driver/src/stm32f10x_flash.c ****   * @brief  Enables or disables the Prefetch Buffer.
 293:../Libraries//STM32F10x_StdPeriph_Driver/src/stm32f10x_flash.c ****   * @note   This function can be used for all STM32F10x devices.
 294:../Libraries//STM32F10x_StdPeriph_Driver/src/stm32f10x_flash.c ****   * @param  FLASH_PrefetchBuffer: specifies the Prefetch buffer status.
 295:../Libraries//STM32F10x_StdPeriph_Driver/src/stm32f10x_flash.c ****   *   This parameter can be one of the following values:
 296:../Libraries//STM32F10x_StdPeriph_Driver/src/stm32f10x_flash.c ****   *     @arg FLASH_PrefetchBuffer_Enable: FLASH Prefetch Buffer Enable
 297:../Libraries//STM32F10x_StdPeriph_Driver/src/stm32f10x_flash.c ****   *     @arg FLASH_PrefetchBuffer_Disable: FLASH Prefetch Buffer Disable
 298:../Libraries//STM32F10x_StdPeriph_Driver/src/stm32f10x_flash.c ****   * @retval None
 299:../Libraries//STM32F10x_StdPeriph_Driver/src/stm32f10x_flash.c ****   */
 300:../Libraries//STM32F10x_StdPeriph_Driver/src/stm32f10x_flash.c **** void FLASH_PrefetchBufferCmd(uint32_t FLASH_PrefetchBuffer)
 301:../Libraries//STM32F10x_StdPeriph_Driver/src/stm32f10x_flash.c **** {
  94              		.loc 1 301 0
  95              		@ args = 0, pretend = 0, frame = 0
  96              		@ frame_needed = 0, uses_anonymous_args = 0
  97              		@ link register save eliminated.
  98              	.LVL5:
 302:../Libraries//STM32F10x_StdPeriph_Driver/src/stm32f10x_flash.c ****   /* Check the parameters */
 303:../Libraries//STM32F10x_StdPeriph_Driver/src/stm32f10x_flash.c ****   assert_param(IS_FLASH_PREFETCHBUFFER_STATE(FLASH_PrefetchBuffer));
 304:../Libraries//STM32F10x_StdPeriph_Driver/src/stm32f10x_flash.c ****   
 305:../Libraries//STM32F10x_StdPeriph_Driver/src/stm32f10x_flash.c ****   /* Enable or disable the Prefetch Buffer */
 306:../Libraries//STM32F10x_StdPeriph_Driver/src/stm32f10x_flash.c ****   FLASH->ACR &= ACR_PRFTBE_Mask;
  99              		.loc 1 306 0
 100 0000 044B     		ldr	r3, .L8
 101 0002 1A68     		ldr	r2, [r3, #0]
 102 0004 22F01002 		bic	r2, r2, #16
 103 0008 1A60     		str	r2, [r3, #0]
 307:../Libraries//STM32F10x_StdPeriph_Driver/src/stm32f10x_flash.c ****   FLASH->ACR |= FLASH_PrefetchBuffer;
 104              		.loc 1 307 0
 105 000a 1A68     		ldr	r2, [r3, #0]
 106 000c 40EA0202 		orr	r2, r0, r2
 107 0010 1A60     		str	r2, [r3, #0]
 308:../Libraries//STM32F10x_StdPeriph_Driver/src/stm32f10x_flash.c **** }
 108              		.loc 1 308 0
 109 0012 7047     		bx	lr
 110              	.L9:
 111              		.align	2
 112              	.L8:
 113 0014 00200240 		.word	1073881088
 114              	.LFE31:
 116              		.section	.text.FLASH_Unlock,"ax",%progbits
 117              		.align	1
 118              		.global	FLASH_Unlock
 119              		.thumb
 120              		.thumb_func
 122              	FLASH_Unlock:
 123              	.LFB32:
 309:../Libraries//STM32F10x_StdPeriph_Driver/src/stm32f10x_flash.c **** 
 310:../Libraries//STM32F10x_StdPeriph_Driver/src/stm32f10x_flash.c **** /**
 311:../Libraries//STM32F10x_StdPeriph_Driver/src/stm32f10x_flash.c ****   * @brief  Unlocks the FLASH Program Erase Controller.
 312:../Libraries//STM32F10x_StdPeriph_Driver/src/stm32f10x_flash.c ****   * @note   This function can be used for all STM32F10x devices.
 313:../Libraries//STM32F10x_StdPeriph_Driver/src/stm32f10x_flash.c ****   *         - For STM32F10X_XL devices this function unlocks Bank1 and Bank2.
 314:../Libraries//STM32F10x_StdPeriph_Driver/src/stm32f10x_flash.c ****   *         - For all other devices it unlocks Bank1 and it is equivalent 
 315:../Libraries//STM32F10x_StdPeriph_Driver/src/stm32f10x_flash.c ****   *           to FLASH_UnlockBank1 function.. 
 316:../Libraries//STM32F10x_StdPeriph_Driver/src/stm32f10x_flash.c ****   * @param  None
 317:../Libraries//STM32F10x_StdPeriph_Driver/src/stm32f10x_flash.c ****   * @retval None
 318:../Libraries//STM32F10x_StdPeriph_Driver/src/stm32f10x_flash.c ****   */
 319:../Libraries//STM32F10x_StdPeriph_Driver/src/stm32f10x_flash.c **** void FLASH_Unlock(void)
 320:../Libraries//STM32F10x_StdPeriph_Driver/src/stm32f10x_flash.c **** {
 124              		.loc 1 320 0
 125              		@ args = 0, pretend = 0, frame = 0
 126              		@ frame_needed = 0, uses_anonymous_args = 0
 127              		@ link register save eliminated.
 321:../Libraries//STM32F10x_StdPeriph_Driver/src/stm32f10x_flash.c ****   /* Authorize the FPEC of Bank1 Access */
 322:../Libraries//STM32F10x_StdPeriph_Driver/src/stm32f10x_flash.c ****   FLASH->KEYR = FLASH_KEY1;
 128              		.loc 1 322 0
 129 0000 024B     		ldr	r3, .L11
 130 0002 034A     		ldr	r2, .L11+4
 131 0004 5A60     		str	r2, [r3, #4]
 323:../Libraries//STM32F10x_StdPeriph_Driver/src/stm32f10x_flash.c ****   FLASH->KEYR = FLASH_KEY2;
 132              		.loc 1 323 0
 133 0006 034A     		ldr	r2, .L11+8
 134 0008 5A60     		str	r2, [r3, #4]
 324:../Libraries//STM32F10x_StdPeriph_Driver/src/stm32f10x_flash.c **** 
 325:../Libraries//STM32F10x_StdPeriph_Driver/src/stm32f10x_flash.c **** #ifdef STM32F10X_XL
 326:../Libraries//STM32F10x_StdPeriph_Driver/src/stm32f10x_flash.c ****   /* Authorize the FPEC of Bank2 Access */
 327:../Libraries//STM32F10x_StdPeriph_Driver/src/stm32f10x_flash.c ****   FLASH->KEYR2 = FLASH_KEY1;
 328:../Libraries//STM32F10x_StdPeriph_Driver/src/stm32f10x_flash.c ****   FLASH->KEYR2 = FLASH_KEY2;
 329:../Libraries//STM32F10x_StdPeriph_Driver/src/stm32f10x_flash.c **** #endif /* STM32F10X_XL */
 330:../Libraries//STM32F10x_StdPeriph_Driver/src/stm32f10x_flash.c **** }
 135              		.loc 1 330 0
 136 000a 7047     		bx	lr
 137              	.L12:
 138              		.align	2
 139              	.L11:
 140 000c 00200240 		.word	1073881088
 141 0010 23016745 		.word	1164378403
 142 0014 AB89EFCD 		.word	-839939669
 143              	.LFE32:
 145              		.section	.text.FLASH_UnlockBank1,"ax",%progbits
 146              		.align	1
 147              		.global	FLASH_UnlockBank1
 148              		.thumb
 149              		.thumb_func
 151              	FLASH_UnlockBank1:
 152              	.LFB33:
 331:../Libraries//STM32F10x_StdPeriph_Driver/src/stm32f10x_flash.c **** /**
 332:../Libraries//STM32F10x_StdPeriph_Driver/src/stm32f10x_flash.c ****   * @brief  Unlocks the FLASH Bank1 Program Erase Controller.
 333:../Libraries//STM32F10x_StdPeriph_Driver/src/stm32f10x_flash.c ****   * @note   This function can be used for all STM32F10x devices.
 334:../Libraries//STM32F10x_StdPeriph_Driver/src/stm32f10x_flash.c ****   *         - For STM32F10X_XL devices this function unlocks Bank1.
 335:../Libraries//STM32F10x_StdPeriph_Driver/src/stm32f10x_flash.c ****   *         - For all other devices it unlocks Bank1 and it is 
 336:../Libraries//STM32F10x_StdPeriph_Driver/src/stm32f10x_flash.c ****   *           equivalent to FLASH_Unlock function.
 337:../Libraries//STM32F10x_StdPeriph_Driver/src/stm32f10x_flash.c ****   * @param  None
 338:../Libraries//STM32F10x_StdPeriph_Driver/src/stm32f10x_flash.c ****   * @retval None
 339:../Libraries//STM32F10x_StdPeriph_Driver/src/stm32f10x_flash.c ****   */
 340:../Libraries//STM32F10x_StdPeriph_Driver/src/stm32f10x_flash.c **** void FLASH_UnlockBank1(void)
 341:../Libraries//STM32F10x_StdPeriph_Driver/src/stm32f10x_flash.c **** {
 153              		.loc 1 341 0
 154              		@ args = 0, pretend = 0, frame = 0
 155              		@ frame_needed = 0, uses_anonymous_args = 0
 156              		@ link register save eliminated.
 342:../Libraries//STM32F10x_StdPeriph_Driver/src/stm32f10x_flash.c ****   /* Authorize the FPEC of Bank1 Access */
 343:../Libraries//STM32F10x_StdPeriph_Driver/src/stm32f10x_flash.c ****   FLASH->KEYR = FLASH_KEY1;
 157              		.loc 1 343 0
 158 0000 024B     		ldr	r3, .L14
 159 0002 034A     		ldr	r2, .L14+4
 160 0004 5A60     		str	r2, [r3, #4]
 344:../Libraries//STM32F10x_StdPeriph_Driver/src/stm32f10x_flash.c ****   FLASH->KEYR = FLASH_KEY2;
 161              		.loc 1 344 0
 162 0006 034A     		ldr	r2, .L14+8
 163 0008 5A60     		str	r2, [r3, #4]
 345:../Libraries//STM32F10x_StdPeriph_Driver/src/stm32f10x_flash.c **** }
 164              		.loc 1 345 0
 165 000a 7047     		bx	lr
 166              	.L15:
 167              		.align	2
 168              	.L14:
 169 000c 00200240 		.word	1073881088
 170 0010 23016745 		.word	1164378403
 171 0014 AB89EFCD 		.word	-839939669
 172              	.LFE33:
 174              		.section	.text.FLASH_Lock,"ax",%progbits
 175              		.align	1
 176              		.global	FLASH_Lock
 177              		.thumb
 178              		.thumb_func
 180              	FLASH_Lock:
 181              	.LFB34:
 346:../Libraries//STM32F10x_StdPeriph_Driver/src/stm32f10x_flash.c **** 
 347:../Libraries//STM32F10x_StdPeriph_Driver/src/stm32f10x_flash.c **** #ifdef STM32F10X_XL
 348:../Libraries//STM32F10x_StdPeriph_Driver/src/stm32f10x_flash.c **** /**
 349:../Libraries//STM32F10x_StdPeriph_Driver/src/stm32f10x_flash.c ****   * @brief  Unlocks the FLASH Bank2 Program Erase Controller.
 350:../Libraries//STM32F10x_StdPeriph_Driver/src/stm32f10x_flash.c ****   * @note   This function can be used only for STM32F10X_XL density devices.
 351:../Libraries//STM32F10x_StdPeriph_Driver/src/stm32f10x_flash.c ****   * @param  None
 352:../Libraries//STM32F10x_StdPeriph_Driver/src/stm32f10x_flash.c ****   * @retval None
 353:../Libraries//STM32F10x_StdPeriph_Driver/src/stm32f10x_flash.c ****   */
 354:../Libraries//STM32F10x_StdPeriph_Driver/src/stm32f10x_flash.c **** void FLASH_UnlockBank2(void)
 355:../Libraries//STM32F10x_StdPeriph_Driver/src/stm32f10x_flash.c **** {
 356:../Libraries//STM32F10x_StdPeriph_Driver/src/stm32f10x_flash.c ****   /* Authorize the FPEC of Bank2 Access */
 357:../Libraries//STM32F10x_StdPeriph_Driver/src/stm32f10x_flash.c ****   FLASH->KEYR2 = FLASH_KEY1;
 358:../Libraries//STM32F10x_StdPeriph_Driver/src/stm32f10x_flash.c ****   FLASH->KEYR2 = FLASH_KEY2;
 359:../Libraries//STM32F10x_StdPeriph_Driver/src/stm32f10x_flash.c **** 
 360:../Libraries//STM32F10x_StdPeriph_Driver/src/stm32f10x_flash.c **** }
 361:../Libraries//STM32F10x_StdPeriph_Driver/src/stm32f10x_flash.c **** #endif /* STM32F10X_XL */
 362:../Libraries//STM32F10x_StdPeriph_Driver/src/stm32f10x_flash.c **** 
 363:../Libraries//STM32F10x_StdPeriph_Driver/src/stm32f10x_flash.c **** /**
 364:../Libraries//STM32F10x_StdPeriph_Driver/src/stm32f10x_flash.c ****   * @brief  Locks the FLASH Program Erase Controller.
 365:../Libraries//STM32F10x_StdPeriph_Driver/src/stm32f10x_flash.c ****   * @note   This function can be used for all STM32F10x devices.
 366:../Libraries//STM32F10x_StdPeriph_Driver/src/stm32f10x_flash.c ****   *         - For STM32F10X_XL devices this function Locks Bank1 and Bank2.
 367:../Libraries//STM32F10x_StdPeriph_Driver/src/stm32f10x_flash.c ****   *         - For all other devices it Locks Bank1 and it is equivalent 
 368:../Libraries//STM32F10x_StdPeriph_Driver/src/stm32f10x_flash.c ****   *           to FLASH_LockBank1 function.
 369:../Libraries//STM32F10x_StdPeriph_Driver/src/stm32f10x_flash.c ****   * @param  None
 370:../Libraries//STM32F10x_StdPeriph_Driver/src/stm32f10x_flash.c ****   * @retval None
 371:../Libraries//STM32F10x_StdPeriph_Driver/src/stm32f10x_flash.c ****   */
 372:../Libraries//STM32F10x_StdPeriph_Driver/src/stm32f10x_flash.c **** void FLASH_Lock(void)
 373:../Libraries//STM32F10x_StdPeriph_Driver/src/stm32f10x_flash.c **** {
 182              		.loc 1 373 0
 183              		@ args = 0, pretend = 0, frame = 0
 184              		@ frame_needed = 0, uses_anonymous_args = 0
 185              		@ link register save eliminated.
 374:../Libraries//STM32F10x_StdPeriph_Driver/src/stm32f10x_flash.c ****   /* Set the Lock Bit to lock the FPEC and the CR of  Bank1 */
 375:../Libraries//STM32F10x_StdPeriph_Driver/src/stm32f10x_flash.c ****   FLASH->CR |= CR_LOCK_Set;
 186              		.loc 1 375 0
 187 0000 024B     		ldr	r3, .L17
 188 0002 1A69     		ldr	r2, [r3, #16]
 189 0004 42F08002 		orr	r2, r2, #128
 190 0008 1A61     		str	r2, [r3, #16]
 376:../Libraries//STM32F10x_StdPeriph_Driver/src/stm32f10x_flash.c **** 
 377:../Libraries//STM32F10x_StdPeriph_Driver/src/stm32f10x_flash.c **** #ifdef STM32F10X_XL
 378:../Libraries//STM32F10x_StdPeriph_Driver/src/stm32f10x_flash.c ****   /* Set the Lock Bit to lock the FPEC and the CR of  Bank2 */
 379:../Libraries//STM32F10x_StdPeriph_Driver/src/stm32f10x_flash.c ****   FLASH->CR2 |= CR_LOCK_Set;
 380:../Libraries//STM32F10x_StdPeriph_Driver/src/stm32f10x_flash.c **** #endif /* STM32F10X_XL */
 381:../Libraries//STM32F10x_StdPeriph_Driver/src/stm32f10x_flash.c **** }
 191              		.loc 1 381 0
 192 000a 7047     		bx	lr
 193              	.L18:
 194              		.align	2
 195              	.L17:
 196 000c 00200240 		.word	1073881088
 197              	.LFE34:
 199              		.section	.text.FLASH_LockBank1,"ax",%progbits
 200              		.align	1
 201              		.global	FLASH_LockBank1
 202              		.thumb
 203              		.thumb_func
 205              	FLASH_LockBank1:
 206              	.LFB35:
 382:../Libraries//STM32F10x_StdPeriph_Driver/src/stm32f10x_flash.c **** 
 383:../Libraries//STM32F10x_StdPeriph_Driver/src/stm32f10x_flash.c **** /**
 384:../Libraries//STM32F10x_StdPeriph_Driver/src/stm32f10x_flash.c ****   * @brief  Locks the FLASH Bank1 Program Erase Controller.
 385:../Libraries//STM32F10x_StdPeriph_Driver/src/stm32f10x_flash.c ****   * @note   this function can be used for all STM32F10x devices.
 386:../Libraries//STM32F10x_StdPeriph_Driver/src/stm32f10x_flash.c ****   *         - For STM32F10X_XL devices this function Locks Bank1.
 387:../Libraries//STM32F10x_StdPeriph_Driver/src/stm32f10x_flash.c ****   *         - For all other devices it Locks Bank1 and it is equivalent 
 388:../Libraries//STM32F10x_StdPeriph_Driver/src/stm32f10x_flash.c ****   *           to FLASH_Lock function.
 389:../Libraries//STM32F10x_StdPeriph_Driver/src/stm32f10x_flash.c ****   * @param  None
 390:../Libraries//STM32F10x_StdPeriph_Driver/src/stm32f10x_flash.c ****   * @retval None
 391:../Libraries//STM32F10x_StdPeriph_Driver/src/stm32f10x_flash.c ****   */
 392:../Libraries//STM32F10x_StdPeriph_Driver/src/stm32f10x_flash.c **** void FLASH_LockBank1(void)
 393:../Libraries//STM32F10x_StdPeriph_Driver/src/stm32f10x_flash.c **** {
 207              		.loc 1 393 0
 208              		@ args = 0, pretend = 0, frame = 0
 209              		@ frame_needed = 0, uses_anonymous_args = 0
 210              		@ link register save eliminated.
 394:../Libraries//STM32F10x_StdPeriph_Driver/src/stm32f10x_flash.c ****   /* Set the Lock Bit to lock the FPEC and the CR of  Bank1 */
 395:../Libraries//STM32F10x_StdPeriph_Driver/src/stm32f10x_flash.c ****   FLASH->CR |= CR_LOCK_Set;
 211              		.loc 1 395 0
 212 0000 024B     		ldr	r3, .L20
 213 0002 1A69     		ldr	r2, [r3, #16]
 214 0004 42F08002 		orr	r2, r2, #128
 215 0008 1A61     		str	r2, [r3, #16]
 396:../Libraries//STM32F10x_StdPeriph_Driver/src/stm32f10x_flash.c **** }
 216              		.loc 1 396 0
 217 000a 7047     		bx	lr
 218              	.L21:
 219              		.align	2
 220              	.L20:
 221 000c 00200240 		.word	1073881088
 222              	.LFE35:
 224              		.section	.text.FLASH_GetUserOptionByte,"ax",%progbits
 225              		.align	1
 226              		.global	FLASH_GetUserOptionByte
 227              		.thumb
 228              		.thumb_func
 230              	FLASH_GetUserOptionByte:
 231              	.LFB46:
 397:../Libraries//STM32F10x_StdPeriph_Driver/src/stm32f10x_flash.c **** 
 398:../Libraries//STM32F10x_StdPeriph_Driver/src/stm32f10x_flash.c **** #ifdef STM32F10X_XL
 399:../Libraries//STM32F10x_StdPeriph_Driver/src/stm32f10x_flash.c **** /**
 400:../Libraries//STM32F10x_StdPeriph_Driver/src/stm32f10x_flash.c ****   * @brief  Locks the FLASH Bank2 Program Erase Controller.
 401:../Libraries//STM32F10x_StdPeriph_Driver/src/stm32f10x_flash.c ****   * @note   This function can be used only for STM32F10X_XL density devices.
 402:../Libraries//STM32F10x_StdPeriph_Driver/src/stm32f10x_flash.c ****   * @param  None
 403:../Libraries//STM32F10x_StdPeriph_Driver/src/stm32f10x_flash.c ****   * @retval None
 404:../Libraries//STM32F10x_StdPeriph_Driver/src/stm32f10x_flash.c ****   */
 405:../Libraries//STM32F10x_StdPeriph_Driver/src/stm32f10x_flash.c **** void FLASH_LockBank2(void)
 406:../Libraries//STM32F10x_StdPeriph_Driver/src/stm32f10x_flash.c **** {
 407:../Libraries//STM32F10x_StdPeriph_Driver/src/stm32f10x_flash.c ****   /* Set the Lock Bit to lock the FPEC and the CR of  Bank2 */
 408:../Libraries//STM32F10x_StdPeriph_Driver/src/stm32f10x_flash.c ****   FLASH->CR2 |= CR_LOCK_Set;
 409:../Libraries//STM32F10x_StdPeriph_Driver/src/stm32f10x_flash.c **** }
 410:../Libraries//STM32F10x_StdPeriph_Driver/src/stm32f10x_flash.c **** #endif /* STM32F10X_XL */
 411:../Libraries//STM32F10x_StdPeriph_Driver/src/stm32f10x_flash.c **** 
 412:../Libraries//STM32F10x_StdPeriph_Driver/src/stm32f10x_flash.c **** /**
 413:../Libraries//STM32F10x_StdPeriph_Driver/src/stm32f10x_flash.c ****   * @brief  Erases a specified FLASH page.
 414:../Libraries//STM32F10x_StdPeriph_Driver/src/stm32f10x_flash.c ****   * @note   This function can be used for all STM32F10x devices.
 415:../Libraries//STM32F10x_StdPeriph_Driver/src/stm32f10x_flash.c ****   * @param  Page_Address: The page address to be erased.
 416:../Libraries//STM32F10x_StdPeriph_Driver/src/stm32f10x_flash.c ****   * @retval FLASH Status: The returned value can be: FLASH_BUSY, FLASH_ERROR_PG,
 417:../Libraries//STM32F10x_StdPeriph_Driver/src/stm32f10x_flash.c ****   *         FLASH_ERROR_WRP, FLASH_COMPLETE or FLASH_TIMEOUT.
 418:../Libraries//STM32F10x_StdPeriph_Driver/src/stm32f10x_flash.c ****   */
 419:../Libraries//STM32F10x_StdPeriph_Driver/src/stm32f10x_flash.c **** FLASH_Status FLASH_ErasePage(uint32_t Page_Address)
 420:../Libraries//STM32F10x_StdPeriph_Driver/src/stm32f10x_flash.c **** {
 421:../Libraries//STM32F10x_StdPeriph_Driver/src/stm32f10x_flash.c ****   FLASH_Status status = FLASH_COMPLETE;
 422:../Libraries//STM32F10x_StdPeriph_Driver/src/stm32f10x_flash.c ****   /* Check the parameters */
 423:../Libraries//STM32F10x_StdPeriph_Driver/src/stm32f10x_flash.c ****   assert_param(IS_FLASH_ADDRESS(Page_Address));
 424:../Libraries//STM32F10x_StdPeriph_Driver/src/stm32f10x_flash.c **** 
 425:../Libraries//STM32F10x_StdPeriph_Driver/src/stm32f10x_flash.c **** #ifdef STM32F10X_XL
 426:../Libraries//STM32F10x_StdPeriph_Driver/src/stm32f10x_flash.c ****   if(Page_Address < FLASH_BANK1_END_ADDRESS)  
 427:../Libraries//STM32F10x_StdPeriph_Driver/src/stm32f10x_flash.c ****   {
 428:../Libraries//STM32F10x_StdPeriph_Driver/src/stm32f10x_flash.c ****     /* Wait for last operation to be completed */
 429:../Libraries//STM32F10x_StdPeriph_Driver/src/stm32f10x_flash.c ****     status = FLASH_WaitForLastBank1Operation(EraseTimeout);
 430:../Libraries//STM32F10x_StdPeriph_Driver/src/stm32f10x_flash.c ****     if(status == FLASH_COMPLETE)
 431:../Libraries//STM32F10x_StdPeriph_Driver/src/stm32f10x_flash.c ****     { 
 432:../Libraries//STM32F10x_StdPeriph_Driver/src/stm32f10x_flash.c ****       /* if the previous operation is completed, proceed to erase the page */
 433:../Libraries//STM32F10x_StdPeriph_Driver/src/stm32f10x_flash.c ****       FLASH->CR|= CR_PER_Set;
 434:../Libraries//STM32F10x_StdPeriph_Driver/src/stm32f10x_flash.c ****       FLASH->AR = Page_Address; 
 435:../Libraries//STM32F10x_StdPeriph_Driver/src/stm32f10x_flash.c ****       FLASH->CR|= CR_STRT_Set;
 436:../Libraries//STM32F10x_StdPeriph_Driver/src/stm32f10x_flash.c ****     
 437:../Libraries//STM32F10x_StdPeriph_Driver/src/stm32f10x_flash.c ****       /* Wait for last operation to be completed */
 438:../Libraries//STM32F10x_StdPeriph_Driver/src/stm32f10x_flash.c ****       status = FLASH_WaitForLastBank1Operation(EraseTimeout);
 439:../Libraries//STM32F10x_StdPeriph_Driver/src/stm32f10x_flash.c **** 
 440:../Libraries//STM32F10x_StdPeriph_Driver/src/stm32f10x_flash.c ****       /* Disable the PER Bit */
 441:../Libraries//STM32F10x_StdPeriph_Driver/src/stm32f10x_flash.c ****       FLASH->CR &= CR_PER_Reset;
 442:../Libraries//STM32F10x_StdPeriph_Driver/src/stm32f10x_flash.c ****     }
 443:../Libraries//STM32F10x_StdPeriph_Driver/src/stm32f10x_flash.c ****   }
 444:../Libraries//STM32F10x_StdPeriph_Driver/src/stm32f10x_flash.c ****   else
 445:../Libraries//STM32F10x_StdPeriph_Driver/src/stm32f10x_flash.c ****   {
 446:../Libraries//STM32F10x_StdPeriph_Driver/src/stm32f10x_flash.c ****     /* Wait for last operation to be completed */
 447:../Libraries//STM32F10x_StdPeriph_Driver/src/stm32f10x_flash.c ****     status = FLASH_WaitForLastBank2Operation(EraseTimeout);
 448:../Libraries//STM32F10x_StdPeriph_Driver/src/stm32f10x_flash.c ****     if(status == FLASH_COMPLETE)
 449:../Libraries//STM32F10x_StdPeriph_Driver/src/stm32f10x_flash.c ****     { 
 450:../Libraries//STM32F10x_StdPeriph_Driver/src/stm32f10x_flash.c ****       /* if the previous operation is completed, proceed to erase the page */
 451:../Libraries//STM32F10x_StdPeriph_Driver/src/stm32f10x_flash.c ****       FLASH->CR2|= CR_PER_Set;
 452:../Libraries//STM32F10x_StdPeriph_Driver/src/stm32f10x_flash.c ****       FLASH->AR2 = Page_Address; 
 453:../Libraries//STM32F10x_StdPeriph_Driver/src/stm32f10x_flash.c ****       FLASH->CR2|= CR_STRT_Set;
 454:../Libraries//STM32F10x_StdPeriph_Driver/src/stm32f10x_flash.c ****     
 455:../Libraries//STM32F10x_StdPeriph_Driver/src/stm32f10x_flash.c ****       /* Wait for last operation to be completed */
 456:../Libraries//STM32F10x_StdPeriph_Driver/src/stm32f10x_flash.c ****       status = FLASH_WaitForLastBank2Operation(EraseTimeout);
 457:../Libraries//STM32F10x_StdPeriph_Driver/src/stm32f10x_flash.c ****       
 458:../Libraries//STM32F10x_StdPeriph_Driver/src/stm32f10x_flash.c ****       /* Disable the PER Bit */
 459:../Libraries//STM32F10x_StdPeriph_Driver/src/stm32f10x_flash.c ****       FLASH->CR2 &= CR_PER_Reset;
 460:../Libraries//STM32F10x_StdPeriph_Driver/src/stm32f10x_flash.c ****     }
 461:../Libraries//STM32F10x_StdPeriph_Driver/src/stm32f10x_flash.c ****   }
 462:../Libraries//STM32F10x_StdPeriph_Driver/src/stm32f10x_flash.c **** #else
 463:../Libraries//STM32F10x_StdPeriph_Driver/src/stm32f10x_flash.c ****   /* Wait for last operation to be completed */
 464:../Libraries//STM32F10x_StdPeriph_Driver/src/stm32f10x_flash.c ****   status = FLASH_WaitForLastOperation(EraseTimeout);
 465:../Libraries//STM32F10x_StdPeriph_Driver/src/stm32f10x_flash.c ****   
 466:../Libraries//STM32F10x_StdPeriph_Driver/src/stm32f10x_flash.c ****   if(status == FLASH_COMPLETE)
 467:../Libraries//STM32F10x_StdPeriph_Driver/src/stm32f10x_flash.c ****   { 
 468:../Libraries//STM32F10x_StdPeriph_Driver/src/stm32f10x_flash.c ****     /* if the previous operation is completed, proceed to erase the page */
 469:../Libraries//STM32F10x_StdPeriph_Driver/src/stm32f10x_flash.c ****     FLASH->CR|= CR_PER_Set;
 470:../Libraries//STM32F10x_StdPeriph_Driver/src/stm32f10x_flash.c ****     FLASH->AR = Page_Address; 
 471:../Libraries//STM32F10x_StdPeriph_Driver/src/stm32f10x_flash.c ****     FLASH->CR|= CR_STRT_Set;
 472:../Libraries//STM32F10x_StdPeriph_Driver/src/stm32f10x_flash.c ****     
 473:../Libraries//STM32F10x_StdPeriph_Driver/src/stm32f10x_flash.c ****     /* Wait for last operation to be completed */
 474:../Libraries//STM32F10x_StdPeriph_Driver/src/stm32f10x_flash.c ****     status = FLASH_WaitForLastOperation(EraseTimeout);
 475:../Libraries//STM32F10x_StdPeriph_Driver/src/stm32f10x_flash.c ****     
 476:../Libraries//STM32F10x_StdPeriph_Driver/src/stm32f10x_flash.c ****     /* Disable the PER Bit */
 477:../Libraries//STM32F10x_StdPeriph_Driver/src/stm32f10x_flash.c ****     FLASH->CR &= CR_PER_Reset;
 478:../Libraries//STM32F10x_StdPeriph_Driver/src/stm32f10x_flash.c ****   }
 479:../Libraries//STM32F10x_StdPeriph_Driver/src/stm32f10x_flash.c **** #endif /* STM32F10X_XL */
 480:../Libraries//STM32F10x_StdPeriph_Driver/src/stm32f10x_flash.c **** 
 481:../Libraries//STM32F10x_StdPeriph_Driver/src/stm32f10x_flash.c ****   /* Return the Erase Status */
 482:../Libraries//STM32F10x_StdPeriph_Driver/src/stm32f10x_flash.c ****   return status;
 483:../Libraries//STM32F10x_StdPeriph_Driver/src/stm32f10x_flash.c **** }
 484:../Libraries//STM32F10x_StdPeriph_Driver/src/stm32f10x_flash.c **** 
 485:../Libraries//STM32F10x_StdPeriph_Driver/src/stm32f10x_flash.c **** /**
 486:../Libraries//STM32F10x_StdPeriph_Driver/src/stm32f10x_flash.c ****   * @brief  Erases all FLASH pages.
 487:../Libraries//STM32F10x_StdPeriph_Driver/src/stm32f10x_flash.c ****   * @note   This function can be used for all STM32F10x devices.
 488:../Libraries//STM32F10x_StdPeriph_Driver/src/stm32f10x_flash.c ****   * @param  None
 489:../Libraries//STM32F10x_StdPeriph_Driver/src/stm32f10x_flash.c ****   * @retval FLASH Status: The returned value can be: FLASH_ERROR_PG,
 490:../Libraries//STM32F10x_StdPeriph_Driver/src/stm32f10x_flash.c ****   *         FLASH_ERROR_WRP, FLASH_COMPLETE or FLASH_TIMEOUT.
 491:../Libraries//STM32F10x_StdPeriph_Driver/src/stm32f10x_flash.c ****   */
 492:../Libraries//STM32F10x_StdPeriph_Driver/src/stm32f10x_flash.c **** FLASH_Status FLASH_EraseAllPages(void)
 493:../Libraries//STM32F10x_StdPeriph_Driver/src/stm32f10x_flash.c **** {
 494:../Libraries//STM32F10x_StdPeriph_Driver/src/stm32f10x_flash.c ****   FLASH_Status status = FLASH_COMPLETE;
 495:../Libraries//STM32F10x_StdPeriph_Driver/src/stm32f10x_flash.c **** 
 496:../Libraries//STM32F10x_StdPeriph_Driver/src/stm32f10x_flash.c **** #ifdef STM32F10X_XL
 497:../Libraries//STM32F10x_StdPeriph_Driver/src/stm32f10x_flash.c ****   /* Wait for last operation to be completed */
 498:../Libraries//STM32F10x_StdPeriph_Driver/src/stm32f10x_flash.c ****   status = FLASH_WaitForLastBank1Operation(EraseTimeout);
 499:../Libraries//STM32F10x_StdPeriph_Driver/src/stm32f10x_flash.c ****   
 500:../Libraries//STM32F10x_StdPeriph_Driver/src/stm32f10x_flash.c ****   if(status == FLASH_COMPLETE)
 501:../Libraries//STM32F10x_StdPeriph_Driver/src/stm32f10x_flash.c ****   {
 502:../Libraries//STM32F10x_StdPeriph_Driver/src/stm32f10x_flash.c ****     /* if the previous operation is completed, proceed to erase all pages */
 503:../Libraries//STM32F10x_StdPeriph_Driver/src/stm32f10x_flash.c ****      FLASH->CR |= CR_MER_Set;
 504:../Libraries//STM32F10x_StdPeriph_Driver/src/stm32f10x_flash.c ****      FLASH->CR |= CR_STRT_Set;
 505:../Libraries//STM32F10x_StdPeriph_Driver/src/stm32f10x_flash.c ****     
 506:../Libraries//STM32F10x_StdPeriph_Driver/src/stm32f10x_flash.c ****     /* Wait for last operation to be completed */
 507:../Libraries//STM32F10x_StdPeriph_Driver/src/stm32f10x_flash.c ****     status = FLASH_WaitForLastBank1Operation(EraseTimeout);
 508:../Libraries//STM32F10x_StdPeriph_Driver/src/stm32f10x_flash.c ****     
 509:../Libraries//STM32F10x_StdPeriph_Driver/src/stm32f10x_flash.c ****     /* Disable the MER Bit */
 510:../Libraries//STM32F10x_StdPeriph_Driver/src/stm32f10x_flash.c ****     FLASH->CR &= CR_MER_Reset;
 511:../Libraries//STM32F10x_StdPeriph_Driver/src/stm32f10x_flash.c ****   }    
 512:../Libraries//STM32F10x_StdPeriph_Driver/src/stm32f10x_flash.c ****   if(status == FLASH_COMPLETE)
 513:../Libraries//STM32F10x_StdPeriph_Driver/src/stm32f10x_flash.c ****   {
 514:../Libraries//STM32F10x_StdPeriph_Driver/src/stm32f10x_flash.c ****     /* if the previous operation is completed, proceed to erase all pages */
 515:../Libraries//STM32F10x_StdPeriph_Driver/src/stm32f10x_flash.c ****      FLASH->CR2 |= CR_MER_Set;
 516:../Libraries//STM32F10x_StdPeriph_Driver/src/stm32f10x_flash.c ****      FLASH->CR2 |= CR_STRT_Set;
 517:../Libraries//STM32F10x_StdPeriph_Driver/src/stm32f10x_flash.c ****     
 518:../Libraries//STM32F10x_StdPeriph_Driver/src/stm32f10x_flash.c ****     /* Wait for last operation to be completed */
 519:../Libraries//STM32F10x_StdPeriph_Driver/src/stm32f10x_flash.c ****     status = FLASH_WaitForLastBank2Operation(EraseTimeout);
 520:../Libraries//STM32F10x_StdPeriph_Driver/src/stm32f10x_flash.c ****     
 521:../Libraries//STM32F10x_StdPeriph_Driver/src/stm32f10x_flash.c ****     /* Disable the MER Bit */
 522:../Libraries//STM32F10x_StdPeriph_Driver/src/stm32f10x_flash.c ****     FLASH->CR2 &= CR_MER_Reset;
 523:../Libraries//STM32F10x_StdPeriph_Driver/src/stm32f10x_flash.c ****   }
 524:../Libraries//STM32F10x_StdPeriph_Driver/src/stm32f10x_flash.c **** #else
 525:../Libraries//STM32F10x_StdPeriph_Driver/src/stm32f10x_flash.c ****   /* Wait for last operation to be completed */
 526:../Libraries//STM32F10x_StdPeriph_Driver/src/stm32f10x_flash.c ****   status = FLASH_WaitForLastOperation(EraseTimeout);
 527:../Libraries//STM32F10x_StdPeriph_Driver/src/stm32f10x_flash.c ****   if(status == FLASH_COMPLETE)
 528:../Libraries//STM32F10x_StdPeriph_Driver/src/stm32f10x_flash.c ****   {
 529:../Libraries//STM32F10x_StdPeriph_Driver/src/stm32f10x_flash.c ****     /* if the previous operation is completed, proceed to erase all pages */
 530:../Libraries//STM32F10x_StdPeriph_Driver/src/stm32f10x_flash.c ****      FLASH->CR |= CR_MER_Set;
 531:../Libraries//STM32F10x_StdPeriph_Driver/src/stm32f10x_flash.c ****      FLASH->CR |= CR_STRT_Set;
 532:../Libraries//STM32F10x_StdPeriph_Driver/src/stm32f10x_flash.c ****     
 533:../Libraries//STM32F10x_StdPeriph_Driver/src/stm32f10x_flash.c ****     /* Wait for last operation to be completed */
 534:../Libraries//STM32F10x_StdPeriph_Driver/src/stm32f10x_flash.c ****     status = FLASH_WaitForLastOperation(EraseTimeout);
 535:../Libraries//STM32F10x_StdPeriph_Driver/src/stm32f10x_flash.c **** 
 536:../Libraries//STM32F10x_StdPeriph_Driver/src/stm32f10x_flash.c ****     /* Disable the MER Bit */
 537:../Libraries//STM32F10x_StdPeriph_Driver/src/stm32f10x_flash.c ****     FLASH->CR &= CR_MER_Reset;
 538:../Libraries//STM32F10x_StdPeriph_Driver/src/stm32f10x_flash.c ****   }
 539:../Libraries//STM32F10x_StdPeriph_Driver/src/stm32f10x_flash.c **** #endif /* STM32F10X_XL */
 540:../Libraries//STM32F10x_StdPeriph_Driver/src/stm32f10x_flash.c **** 
 541:../Libraries//STM32F10x_StdPeriph_Driver/src/stm32f10x_flash.c ****   /* Return the Erase Status */
 542:../Libraries//STM32F10x_StdPeriph_Driver/src/stm32f10x_flash.c ****   return status;
 543:../Libraries//STM32F10x_StdPeriph_Driver/src/stm32f10x_flash.c **** }
 544:../Libraries//STM32F10x_StdPeriph_Driver/src/stm32f10x_flash.c **** 
 545:../Libraries//STM32F10x_StdPeriph_Driver/src/stm32f10x_flash.c **** /**
 546:../Libraries//STM32F10x_StdPeriph_Driver/src/stm32f10x_flash.c ****   * @brief  Erases all Bank1 FLASH pages.
 547:../Libraries//STM32F10x_StdPeriph_Driver/src/stm32f10x_flash.c ****   * @note   This function can be used for all STM32F10x devices.
 548:../Libraries//STM32F10x_StdPeriph_Driver/src/stm32f10x_flash.c ****   *         - For STM32F10X_XL devices this function erases all Bank1 pages.
 549:../Libraries//STM32F10x_StdPeriph_Driver/src/stm32f10x_flash.c ****   *         - For all other devices it erases all Bank1 pages and it is equivalent 
 550:../Libraries//STM32F10x_StdPeriph_Driver/src/stm32f10x_flash.c ****   *           to FLASH_EraseAllPages function.
 551:../Libraries//STM32F10x_StdPeriph_Driver/src/stm32f10x_flash.c ****   * @param  None
 552:../Libraries//STM32F10x_StdPeriph_Driver/src/stm32f10x_flash.c ****   * @retval FLASH Status: The returned value can be: FLASH_ERROR_PG,
 553:../Libraries//STM32F10x_StdPeriph_Driver/src/stm32f10x_flash.c ****   *         FLASH_ERROR_WRP, FLASH_COMPLETE or FLASH_TIMEOUT.
 554:../Libraries//STM32F10x_StdPeriph_Driver/src/stm32f10x_flash.c ****   */
 555:../Libraries//STM32F10x_StdPeriph_Driver/src/stm32f10x_flash.c **** FLASH_Status FLASH_EraseAllBank1Pages(void)
 556:../Libraries//STM32F10x_StdPeriph_Driver/src/stm32f10x_flash.c **** {
 557:../Libraries//STM32F10x_StdPeriph_Driver/src/stm32f10x_flash.c ****   FLASH_Status status = FLASH_COMPLETE;
 558:../Libraries//STM32F10x_StdPeriph_Driver/src/stm32f10x_flash.c ****   /* Wait for last operation to be completed */
 559:../Libraries//STM32F10x_StdPeriph_Driver/src/stm32f10x_flash.c ****   status = FLASH_WaitForLastBank1Operation(EraseTimeout);
 560:../Libraries//STM32F10x_StdPeriph_Driver/src/stm32f10x_flash.c ****   
 561:../Libraries//STM32F10x_StdPeriph_Driver/src/stm32f10x_flash.c ****   if(status == FLASH_COMPLETE)
 562:../Libraries//STM32F10x_StdPeriph_Driver/src/stm32f10x_flash.c ****   {
 563:../Libraries//STM32F10x_StdPeriph_Driver/src/stm32f10x_flash.c ****     /* if the previous operation is completed, proceed to erase all pages */
 564:../Libraries//STM32F10x_StdPeriph_Driver/src/stm32f10x_flash.c ****      FLASH->CR |= CR_MER_Set;
 565:../Libraries//STM32F10x_StdPeriph_Driver/src/stm32f10x_flash.c ****      FLASH->CR |= CR_STRT_Set;
 566:../Libraries//STM32F10x_StdPeriph_Driver/src/stm32f10x_flash.c ****     
 567:../Libraries//STM32F10x_StdPeriph_Driver/src/stm32f10x_flash.c ****     /* Wait for last operation to be completed */
 568:../Libraries//STM32F10x_StdPeriph_Driver/src/stm32f10x_flash.c ****     status = FLASH_WaitForLastBank1Operation(EraseTimeout);
 569:../Libraries//STM32F10x_StdPeriph_Driver/src/stm32f10x_flash.c ****     
 570:../Libraries//STM32F10x_StdPeriph_Driver/src/stm32f10x_flash.c ****     /* Disable the MER Bit */
 571:../Libraries//STM32F10x_StdPeriph_Driver/src/stm32f10x_flash.c ****     FLASH->CR &= CR_MER_Reset;
 572:../Libraries//STM32F10x_StdPeriph_Driver/src/stm32f10x_flash.c ****   }    
 573:../Libraries//STM32F10x_StdPeriph_Driver/src/stm32f10x_flash.c ****   /* Return the Erase Status */
 574:../Libraries//STM32F10x_StdPeriph_Driver/src/stm32f10x_flash.c ****   return status;
 575:../Libraries//STM32F10x_StdPeriph_Driver/src/stm32f10x_flash.c **** }
 576:../Libraries//STM32F10x_StdPeriph_Driver/src/stm32f10x_flash.c **** 
 577:../Libraries//STM32F10x_StdPeriph_Driver/src/stm32f10x_flash.c **** #ifdef STM32F10X_XL
 578:../Libraries//STM32F10x_StdPeriph_Driver/src/stm32f10x_flash.c **** /**
 579:../Libraries//STM32F10x_StdPeriph_Driver/src/stm32f10x_flash.c ****   * @brief  Erases all Bank2 FLASH pages.
 580:../Libraries//STM32F10x_StdPeriph_Driver/src/stm32f10x_flash.c ****   * @note   This function can be used only for STM32F10x_XL density devices.
 581:../Libraries//STM32F10x_StdPeriph_Driver/src/stm32f10x_flash.c ****   * @param  None
 582:../Libraries//STM32F10x_StdPeriph_Driver/src/stm32f10x_flash.c ****   * @retval FLASH Status: The returned value can be: FLASH_ERROR_PG,
 583:../Libraries//STM32F10x_StdPeriph_Driver/src/stm32f10x_flash.c ****   *         FLASH_ERROR_WRP, FLASH_COMPLETE or FLASH_TIMEOUT.
 584:../Libraries//STM32F10x_StdPeriph_Driver/src/stm32f10x_flash.c ****   */
 585:../Libraries//STM32F10x_StdPeriph_Driver/src/stm32f10x_flash.c **** FLASH_Status FLASH_EraseAllBank2Pages(void)
 586:../Libraries//STM32F10x_StdPeriph_Driver/src/stm32f10x_flash.c **** {
 587:../Libraries//STM32F10x_StdPeriph_Driver/src/stm32f10x_flash.c ****   FLASH_Status status = FLASH_COMPLETE;
 588:../Libraries//STM32F10x_StdPeriph_Driver/src/stm32f10x_flash.c ****   /* Wait for last operation to be completed */
 589:../Libraries//STM32F10x_StdPeriph_Driver/src/stm32f10x_flash.c ****   status = FLASH_WaitForLastBank2Operation(EraseTimeout);
 590:../Libraries//STM32F10x_StdPeriph_Driver/src/stm32f10x_flash.c ****   
 591:../Libraries//STM32F10x_StdPeriph_Driver/src/stm32f10x_flash.c ****   if(status == FLASH_COMPLETE)
 592:../Libraries//STM32F10x_StdPeriph_Driver/src/stm32f10x_flash.c ****   {
 593:../Libraries//STM32F10x_StdPeriph_Driver/src/stm32f10x_flash.c ****     /* if the previous operation is completed, proceed to erase all pages */
 594:../Libraries//STM32F10x_StdPeriph_Driver/src/stm32f10x_flash.c ****      FLASH->CR2 |= CR_MER_Set;
 595:../Libraries//STM32F10x_StdPeriph_Driver/src/stm32f10x_flash.c ****      FLASH->CR2 |= CR_STRT_Set;
 596:../Libraries//STM32F10x_StdPeriph_Driver/src/stm32f10x_flash.c ****     
 597:../Libraries//STM32F10x_StdPeriph_Driver/src/stm32f10x_flash.c ****     /* Wait for last operation to be completed */
 598:../Libraries//STM32F10x_StdPeriph_Driver/src/stm32f10x_flash.c ****     status = FLASH_WaitForLastBank2Operation(EraseTimeout);
 599:../Libraries//STM32F10x_StdPeriph_Driver/src/stm32f10x_flash.c **** 
 600:../Libraries//STM32F10x_StdPeriph_Driver/src/stm32f10x_flash.c ****     /* Disable the MER Bit */
 601:../Libraries//STM32F10x_StdPeriph_Driver/src/stm32f10x_flash.c ****     FLASH->CR2 &= CR_MER_Reset;
 602:../Libraries//STM32F10x_StdPeriph_Driver/src/stm32f10x_flash.c ****   }    
 603:../Libraries//STM32F10x_StdPeriph_Driver/src/stm32f10x_flash.c ****   /* Return the Erase Status */
 604:../Libraries//STM32F10x_StdPeriph_Driver/src/stm32f10x_flash.c ****   return status;
 605:../Libraries//STM32F10x_StdPeriph_Driver/src/stm32f10x_flash.c **** }
 606:../Libraries//STM32F10x_StdPeriph_Driver/src/stm32f10x_flash.c **** #endif /* STM32F10X_XL */
 607:../Libraries//STM32F10x_StdPeriph_Driver/src/stm32f10x_flash.c **** 
 608:../Libraries//STM32F10x_StdPeriph_Driver/src/stm32f10x_flash.c **** /**
 609:../Libraries//STM32F10x_StdPeriph_Driver/src/stm32f10x_flash.c ****   * @brief  Erases the FLASH option bytes.
 610:../Libraries//STM32F10x_StdPeriph_Driver/src/stm32f10x_flash.c ****   * @note   This functions erases all option bytes except the Read protection (RDP). 
 611:../Libraries//STM32F10x_StdPeriph_Driver/src/stm32f10x_flash.c ****   * @note   This function can be used for all STM32F10x devices.
 612:../Libraries//STM32F10x_StdPeriph_Driver/src/stm32f10x_flash.c ****   * @param  None
 613:../Libraries//STM32F10x_StdPeriph_Driver/src/stm32f10x_flash.c ****   * @retval FLASH Status: The returned value can be: FLASH_ERROR_PG,
 614:../Libraries//STM32F10x_StdPeriph_Driver/src/stm32f10x_flash.c ****   *         FLASH_ERROR_WRP, FLASH_COMPLETE or FLASH_TIMEOUT.
 615:../Libraries//STM32F10x_StdPeriph_Driver/src/stm32f10x_flash.c ****   */
 616:../Libraries//STM32F10x_StdPeriph_Driver/src/stm32f10x_flash.c **** FLASH_Status FLASH_EraseOptionBytes(void)
 617:../Libraries//STM32F10x_StdPeriph_Driver/src/stm32f10x_flash.c **** {
 618:../Libraries//STM32F10x_StdPeriph_Driver/src/stm32f10x_flash.c ****   uint16_t rdptmp = RDP_Key;
 619:../Libraries//STM32F10x_StdPeriph_Driver/src/stm32f10x_flash.c **** 
 620:../Libraries//STM32F10x_StdPeriph_Driver/src/stm32f10x_flash.c ****   FLASH_Status status = FLASH_COMPLETE;
 621:../Libraries//STM32F10x_StdPeriph_Driver/src/stm32f10x_flash.c **** 
 622:../Libraries//STM32F10x_StdPeriph_Driver/src/stm32f10x_flash.c ****   /* Get the actual read protection Option Byte value */ 
 623:../Libraries//STM32F10x_StdPeriph_Driver/src/stm32f10x_flash.c ****   if(FLASH_GetReadOutProtectionStatus() != RESET)
 624:../Libraries//STM32F10x_StdPeriph_Driver/src/stm32f10x_flash.c ****   {
 625:../Libraries//STM32F10x_StdPeriph_Driver/src/stm32f10x_flash.c ****     rdptmp = 0x00;  
 626:../Libraries//STM32F10x_StdPeriph_Driver/src/stm32f10x_flash.c ****   }
 627:../Libraries//STM32F10x_StdPeriph_Driver/src/stm32f10x_flash.c **** 
 628:../Libraries//STM32F10x_StdPeriph_Driver/src/stm32f10x_flash.c ****   /* Wait for last operation to be completed */
 629:../Libraries//STM32F10x_StdPeriph_Driver/src/stm32f10x_flash.c ****   status = FLASH_WaitForLastOperation(EraseTimeout);
 630:../Libraries//STM32F10x_StdPeriph_Driver/src/stm32f10x_flash.c ****   if(status == FLASH_COMPLETE)
 631:../Libraries//STM32F10x_StdPeriph_Driver/src/stm32f10x_flash.c ****   {
 632:../Libraries//STM32F10x_StdPeriph_Driver/src/stm32f10x_flash.c ****     /* Authorize the small information block programming */
 633:../Libraries//STM32F10x_StdPeriph_Driver/src/stm32f10x_flash.c ****     FLASH->OPTKEYR = FLASH_KEY1;
 634:../Libraries//STM32F10x_StdPeriph_Driver/src/stm32f10x_flash.c ****     FLASH->OPTKEYR = FLASH_KEY2;
 635:../Libraries//STM32F10x_StdPeriph_Driver/src/stm32f10x_flash.c ****     
 636:../Libraries//STM32F10x_StdPeriph_Driver/src/stm32f10x_flash.c ****     /* if the previous operation is completed, proceed to erase the option bytes */
 637:../Libraries//STM32F10x_StdPeriph_Driver/src/stm32f10x_flash.c ****     FLASH->CR |= CR_OPTER_Set;
 638:../Libraries//STM32F10x_StdPeriph_Driver/src/stm32f10x_flash.c ****     FLASH->CR |= CR_STRT_Set;
 639:../Libraries//STM32F10x_StdPeriph_Driver/src/stm32f10x_flash.c ****     /* Wait for last operation to be completed */
 640:../Libraries//STM32F10x_StdPeriph_Driver/src/stm32f10x_flash.c ****     status = FLASH_WaitForLastOperation(EraseTimeout);
 641:../Libraries//STM32F10x_StdPeriph_Driver/src/stm32f10x_flash.c ****     
 642:../Libraries//STM32F10x_StdPeriph_Driver/src/stm32f10x_flash.c ****     if(status == FLASH_COMPLETE)
 643:../Libraries//STM32F10x_StdPeriph_Driver/src/stm32f10x_flash.c ****     {
 644:../Libraries//STM32F10x_StdPeriph_Driver/src/stm32f10x_flash.c ****       /* if the erase operation is completed, disable the OPTER Bit */
 645:../Libraries//STM32F10x_StdPeriph_Driver/src/stm32f10x_flash.c ****       FLASH->CR &= CR_OPTER_Reset;
 646:../Libraries//STM32F10x_StdPeriph_Driver/src/stm32f10x_flash.c ****        
 647:../Libraries//STM32F10x_StdPeriph_Driver/src/stm32f10x_flash.c ****       /* Enable the Option Bytes Programming operation */
 648:../Libraries//STM32F10x_StdPeriph_Driver/src/stm32f10x_flash.c ****       FLASH->CR |= CR_OPTPG_Set;
 649:../Libraries//STM32F10x_StdPeriph_Driver/src/stm32f10x_flash.c ****       /* Restore the last read protection Option Byte value */
 650:../Libraries//STM32F10x_StdPeriph_Driver/src/stm32f10x_flash.c ****       OB->RDP = (uint16_t)rdptmp; 
 651:../Libraries//STM32F10x_StdPeriph_Driver/src/stm32f10x_flash.c ****       /* Wait for last operation to be completed */
 652:../Libraries//STM32F10x_StdPeriph_Driver/src/stm32f10x_flash.c ****       status = FLASH_WaitForLastOperation(ProgramTimeout);
 653:../Libraries//STM32F10x_StdPeriph_Driver/src/stm32f10x_flash.c ****  
 654:../Libraries//STM32F10x_StdPeriph_Driver/src/stm32f10x_flash.c ****       if(status != FLASH_TIMEOUT)
 655:../Libraries//STM32F10x_StdPeriph_Driver/src/stm32f10x_flash.c ****       {
 656:../Libraries//STM32F10x_StdPeriph_Driver/src/stm32f10x_flash.c ****         /* if the program operation is completed, disable the OPTPG Bit */
 657:../Libraries//STM32F10x_StdPeriph_Driver/src/stm32f10x_flash.c ****         FLASH->CR &= CR_OPTPG_Reset;
 658:../Libraries//STM32F10x_StdPeriph_Driver/src/stm32f10x_flash.c ****       }
 659:../Libraries//STM32F10x_StdPeriph_Driver/src/stm32f10x_flash.c ****     }
 660:../Libraries//STM32F10x_StdPeriph_Driver/src/stm32f10x_flash.c ****     else
 661:../Libraries//STM32F10x_StdPeriph_Driver/src/stm32f10x_flash.c ****     {
 662:../Libraries//STM32F10x_StdPeriph_Driver/src/stm32f10x_flash.c ****       if (status != FLASH_TIMEOUT)
 663:../Libraries//STM32F10x_StdPeriph_Driver/src/stm32f10x_flash.c ****       {
 664:../Libraries//STM32F10x_StdPeriph_Driver/src/stm32f10x_flash.c ****         /* Disable the OPTPG Bit */
 665:../Libraries//STM32F10x_StdPeriph_Driver/src/stm32f10x_flash.c ****         FLASH->CR &= CR_OPTPG_Reset;
 666:../Libraries//STM32F10x_StdPeriph_Driver/src/stm32f10x_flash.c ****       }
 667:../Libraries//STM32F10x_StdPeriph_Driver/src/stm32f10x_flash.c ****     }  
 668:../Libraries//STM32F10x_StdPeriph_Driver/src/stm32f10x_flash.c ****   }
 669:../Libraries//STM32F10x_StdPeriph_Driver/src/stm32f10x_flash.c ****   /* Return the erase status */
 670:../Libraries//STM32F10x_StdPeriph_Driver/src/stm32f10x_flash.c ****   return status;
 671:../Libraries//STM32F10x_StdPeriph_Driver/src/stm32f10x_flash.c **** }
 672:../Libraries//STM32F10x_StdPeriph_Driver/src/stm32f10x_flash.c **** 
 673:../Libraries//STM32F10x_StdPeriph_Driver/src/stm32f10x_flash.c **** /**
 674:../Libraries//STM32F10x_StdPeriph_Driver/src/stm32f10x_flash.c ****   * @brief  Programs a word at a specified address.
 675:../Libraries//STM32F10x_StdPeriph_Driver/src/stm32f10x_flash.c ****   * @note   This function can be used for all STM32F10x devices.
 676:../Libraries//STM32F10x_StdPeriph_Driver/src/stm32f10x_flash.c ****   * @param  Address: specifies the address to be programmed.
 677:../Libraries//STM32F10x_StdPeriph_Driver/src/stm32f10x_flash.c ****   * @param  Data: specifies the data to be programmed.
 678:../Libraries//STM32F10x_StdPeriph_Driver/src/stm32f10x_flash.c ****   * @retval FLASH Status: The returned value can be: FLASH_ERROR_PG,
 679:../Libraries//STM32F10x_StdPeriph_Driver/src/stm32f10x_flash.c ****   *         FLASH_ERROR_WRP, FLASH_COMPLETE or FLASH_TIMEOUT. 
 680:../Libraries//STM32F10x_StdPeriph_Driver/src/stm32f10x_flash.c ****   */
 681:../Libraries//STM32F10x_StdPeriph_Driver/src/stm32f10x_flash.c **** FLASH_Status FLASH_ProgramWord(uint32_t Address, uint32_t Data)
 682:../Libraries//STM32F10x_StdPeriph_Driver/src/stm32f10x_flash.c **** {
 683:../Libraries//STM32F10x_StdPeriph_Driver/src/stm32f10x_flash.c ****   FLASH_Status status = FLASH_COMPLETE;
 684:../Libraries//STM32F10x_StdPeriph_Driver/src/stm32f10x_flash.c ****   __IO uint32_t tmp = 0;
 685:../Libraries//STM32F10x_StdPeriph_Driver/src/stm32f10x_flash.c **** 
 686:../Libraries//STM32F10x_StdPeriph_Driver/src/stm32f10x_flash.c ****   /* Check the parameters */
 687:../Libraries//STM32F10x_StdPeriph_Driver/src/stm32f10x_flash.c ****   assert_param(IS_FLASH_ADDRESS(Address));
 688:../Libraries//STM32F10x_StdPeriph_Driver/src/stm32f10x_flash.c **** 
 689:../Libraries//STM32F10x_StdPeriph_Driver/src/stm32f10x_flash.c **** #ifdef STM32F10X_XL
 690:../Libraries//STM32F10x_StdPeriph_Driver/src/stm32f10x_flash.c ****   if(Address < FLASH_BANK1_END_ADDRESS - 2)
 691:../Libraries//STM32F10x_StdPeriph_Driver/src/stm32f10x_flash.c ****   { 
 692:../Libraries//STM32F10x_StdPeriph_Driver/src/stm32f10x_flash.c ****     /* Wait for last operation to be completed */
 693:../Libraries//STM32F10x_StdPeriph_Driver/src/stm32f10x_flash.c ****     status = FLASH_WaitForLastBank1Operation(ProgramTimeout); 
 694:../Libraries//STM32F10x_StdPeriph_Driver/src/stm32f10x_flash.c ****     if(status == FLASH_COMPLETE)
 695:../Libraries//STM32F10x_StdPeriph_Driver/src/stm32f10x_flash.c ****     {
 696:../Libraries//STM32F10x_StdPeriph_Driver/src/stm32f10x_flash.c ****       /* if the previous operation is completed, proceed to program the new first 
 697:../Libraries//STM32F10x_StdPeriph_Driver/src/stm32f10x_flash.c ****         half word */
 698:../Libraries//STM32F10x_StdPeriph_Driver/src/stm32f10x_flash.c ****       FLASH->CR |= CR_PG_Set;
 699:../Libraries//STM32F10x_StdPeriph_Driver/src/stm32f10x_flash.c ****   
 700:../Libraries//STM32F10x_StdPeriph_Driver/src/stm32f10x_flash.c ****       *(__IO uint16_t*)Address = (uint16_t)Data;
 701:../Libraries//STM32F10x_StdPeriph_Driver/src/stm32f10x_flash.c ****       /* Wait for last operation to be completed */
 702:../Libraries//STM32F10x_StdPeriph_Driver/src/stm32f10x_flash.c ****       status = FLASH_WaitForLastOperation(ProgramTimeout);
 703:../Libraries//STM32F10x_StdPeriph_Driver/src/stm32f10x_flash.c ****  
 704:../Libraries//STM32F10x_StdPeriph_Driver/src/stm32f10x_flash.c ****       if(status == FLASH_COMPLETE)
 705:../Libraries//STM32F10x_StdPeriph_Driver/src/stm32f10x_flash.c ****       {
 706:../Libraries//STM32F10x_StdPeriph_Driver/src/stm32f10x_flash.c ****         /* if the previous operation is completed, proceed to program the new second 
 707:../Libraries//STM32F10x_StdPeriph_Driver/src/stm32f10x_flash.c ****         half word */
 708:../Libraries//STM32F10x_StdPeriph_Driver/src/stm32f10x_flash.c ****         tmp = Address + 2;
 709:../Libraries//STM32F10x_StdPeriph_Driver/src/stm32f10x_flash.c **** 
 710:../Libraries//STM32F10x_StdPeriph_Driver/src/stm32f10x_flash.c ****         *(__IO uint16_t*) tmp = Data >> 16;
 711:../Libraries//STM32F10x_StdPeriph_Driver/src/stm32f10x_flash.c ****     
 712:../Libraries//STM32F10x_StdPeriph_Driver/src/stm32f10x_flash.c ****         /* Wait for last operation to be completed */
 713:../Libraries//STM32F10x_StdPeriph_Driver/src/stm32f10x_flash.c ****         status = FLASH_WaitForLastOperation(ProgramTimeout);
 714:../Libraries//STM32F10x_StdPeriph_Driver/src/stm32f10x_flash.c ****         
 715:../Libraries//STM32F10x_StdPeriph_Driver/src/stm32f10x_flash.c ****         /* Disable the PG Bit */
 716:../Libraries//STM32F10x_StdPeriph_Driver/src/stm32f10x_flash.c ****         FLASH->CR &= CR_PG_Reset;
 717:../Libraries//STM32F10x_StdPeriph_Driver/src/stm32f10x_flash.c ****       }
 718:../Libraries//STM32F10x_StdPeriph_Driver/src/stm32f10x_flash.c ****       else
 719:../Libraries//STM32F10x_StdPeriph_Driver/src/stm32f10x_flash.c ****       {
 720:../Libraries//STM32F10x_StdPeriph_Driver/src/stm32f10x_flash.c ****         /* Disable the PG Bit */
 721:../Libraries//STM32F10x_StdPeriph_Driver/src/stm32f10x_flash.c ****         FLASH->CR &= CR_PG_Reset;
 722:../Libraries//STM32F10x_StdPeriph_Driver/src/stm32f10x_flash.c ****        }
 723:../Libraries//STM32F10x_StdPeriph_Driver/src/stm32f10x_flash.c ****     }
 724:../Libraries//STM32F10x_StdPeriph_Driver/src/stm32f10x_flash.c ****   }
 725:../Libraries//STM32F10x_StdPeriph_Driver/src/stm32f10x_flash.c ****   else if(Address == (FLASH_BANK1_END_ADDRESS - 1))
 726:../Libraries//STM32F10x_StdPeriph_Driver/src/stm32f10x_flash.c ****   {
 727:../Libraries//STM32F10x_StdPeriph_Driver/src/stm32f10x_flash.c ****     /* Wait for last operation to be completed */
 728:../Libraries//STM32F10x_StdPeriph_Driver/src/stm32f10x_flash.c ****     status = FLASH_WaitForLastBank1Operation(ProgramTimeout);
 729:../Libraries//STM32F10x_StdPeriph_Driver/src/stm32f10x_flash.c **** 
 730:../Libraries//STM32F10x_StdPeriph_Driver/src/stm32f10x_flash.c ****     if(status == FLASH_COMPLETE)
 731:../Libraries//STM32F10x_StdPeriph_Driver/src/stm32f10x_flash.c ****     {
 732:../Libraries//STM32F10x_StdPeriph_Driver/src/stm32f10x_flash.c ****       /* if the previous operation is completed, proceed to program the new first 
 733:../Libraries//STM32F10x_StdPeriph_Driver/src/stm32f10x_flash.c ****         half word */
 734:../Libraries//STM32F10x_StdPeriph_Driver/src/stm32f10x_flash.c ****       FLASH->CR |= CR_PG_Set;
 735:../Libraries//STM32F10x_StdPeriph_Driver/src/stm32f10x_flash.c ****   
 736:../Libraries//STM32F10x_StdPeriph_Driver/src/stm32f10x_flash.c ****       *(__IO uint16_t*)Address = (uint16_t)Data;
 737:../Libraries//STM32F10x_StdPeriph_Driver/src/stm32f10x_flash.c **** 
 738:../Libraries//STM32F10x_StdPeriph_Driver/src/stm32f10x_flash.c ****       /* Wait for last operation to be completed */
 739:../Libraries//STM32F10x_StdPeriph_Driver/src/stm32f10x_flash.c ****       status = FLASH_WaitForLastBank1Operation(ProgramTimeout);
 740:../Libraries//STM32F10x_StdPeriph_Driver/src/stm32f10x_flash.c ****       
 741:../Libraries//STM32F10x_StdPeriph_Driver/src/stm32f10x_flash.c **** 	  /* Disable the PG Bit */
 742:../Libraries//STM32F10x_StdPeriph_Driver/src/stm32f10x_flash.c ****       FLASH->CR &= CR_PG_Reset;
 743:../Libraries//STM32F10x_StdPeriph_Driver/src/stm32f10x_flash.c ****     }
 744:../Libraries//STM32F10x_StdPeriph_Driver/src/stm32f10x_flash.c ****     else
 745:../Libraries//STM32F10x_StdPeriph_Driver/src/stm32f10x_flash.c ****     {
 746:../Libraries//STM32F10x_StdPeriph_Driver/src/stm32f10x_flash.c ****       /* Disable the PG Bit */
 747:../Libraries//STM32F10x_StdPeriph_Driver/src/stm32f10x_flash.c ****       FLASH->CR &= CR_PG_Reset;
 748:../Libraries//STM32F10x_StdPeriph_Driver/src/stm32f10x_flash.c ****     }
 749:../Libraries//STM32F10x_StdPeriph_Driver/src/stm32f10x_flash.c **** 
 750:../Libraries//STM32F10x_StdPeriph_Driver/src/stm32f10x_flash.c ****     /* Wait for last operation to be completed */
 751:../Libraries//STM32F10x_StdPeriph_Driver/src/stm32f10x_flash.c ****     status = FLASH_WaitForLastBank2Operation(ProgramTimeout);
 752:../Libraries//STM32F10x_StdPeriph_Driver/src/stm32f10x_flash.c **** 
 753:../Libraries//STM32F10x_StdPeriph_Driver/src/stm32f10x_flash.c ****     if(status == FLASH_COMPLETE)
 754:../Libraries//STM32F10x_StdPeriph_Driver/src/stm32f10x_flash.c ****     {
 755:../Libraries//STM32F10x_StdPeriph_Driver/src/stm32f10x_flash.c ****       /* if the previous operation is completed, proceed to program the new second 
 756:../Libraries//STM32F10x_StdPeriph_Driver/src/stm32f10x_flash.c ****       half word */
 757:../Libraries//STM32F10x_StdPeriph_Driver/src/stm32f10x_flash.c ****       FLASH->CR2 |= CR_PG_Set;
 758:../Libraries//STM32F10x_StdPeriph_Driver/src/stm32f10x_flash.c ****       tmp = Address + 2;
 759:../Libraries//STM32F10x_StdPeriph_Driver/src/stm32f10x_flash.c **** 
 760:../Libraries//STM32F10x_StdPeriph_Driver/src/stm32f10x_flash.c ****       *(__IO uint16_t*) tmp = Data >> 16;
 761:../Libraries//STM32F10x_StdPeriph_Driver/src/stm32f10x_flash.c ****     
 762:../Libraries//STM32F10x_StdPeriph_Driver/src/stm32f10x_flash.c ****       /* Wait for last operation to be completed */
 763:../Libraries//STM32F10x_StdPeriph_Driver/src/stm32f10x_flash.c ****       status = FLASH_WaitForLastBank2Operation(ProgramTimeout);
 764:../Libraries//STM32F10x_StdPeriph_Driver/src/stm32f10x_flash.c ****         
 765:../Libraries//STM32F10x_StdPeriph_Driver/src/stm32f10x_flash.c ****       /* Disable the PG Bit */
 766:../Libraries//STM32F10x_StdPeriph_Driver/src/stm32f10x_flash.c ****       FLASH->CR2 &= CR_PG_Reset;
 767:../Libraries//STM32F10x_StdPeriph_Driver/src/stm32f10x_flash.c ****     }
 768:../Libraries//STM32F10x_StdPeriph_Driver/src/stm32f10x_flash.c ****     else
 769:../Libraries//STM32F10x_StdPeriph_Driver/src/stm32f10x_flash.c ****     {
 770:../Libraries//STM32F10x_StdPeriph_Driver/src/stm32f10x_flash.c ****       /* Disable the PG Bit */
 771:../Libraries//STM32F10x_StdPeriph_Driver/src/stm32f10x_flash.c ****       FLASH->CR2 &= CR_PG_Reset;
 772:../Libraries//STM32F10x_StdPeriph_Driver/src/stm32f10x_flash.c ****     }
 773:../Libraries//STM32F10x_StdPeriph_Driver/src/stm32f10x_flash.c ****   }
 774:../Libraries//STM32F10x_StdPeriph_Driver/src/stm32f10x_flash.c ****   else
 775:../Libraries//STM32F10x_StdPeriph_Driver/src/stm32f10x_flash.c ****   {
 776:../Libraries//STM32F10x_StdPeriph_Driver/src/stm32f10x_flash.c ****     /* Wait for last operation to be completed */
 777:../Libraries//STM32F10x_StdPeriph_Driver/src/stm32f10x_flash.c ****     status = FLASH_WaitForLastBank2Operation(ProgramTimeout);
 778:../Libraries//STM32F10x_StdPeriph_Driver/src/stm32f10x_flash.c **** 
 779:../Libraries//STM32F10x_StdPeriph_Driver/src/stm32f10x_flash.c ****     if(status == FLASH_COMPLETE)
 780:../Libraries//STM32F10x_StdPeriph_Driver/src/stm32f10x_flash.c ****     {
 781:../Libraries//STM32F10x_StdPeriph_Driver/src/stm32f10x_flash.c ****       /* if the previous operation is completed, proceed to program the new first 
 782:../Libraries//STM32F10x_StdPeriph_Driver/src/stm32f10x_flash.c ****         half word */
 783:../Libraries//STM32F10x_StdPeriph_Driver/src/stm32f10x_flash.c ****       FLASH->CR2 |= CR_PG_Set;
 784:../Libraries//STM32F10x_StdPeriph_Driver/src/stm32f10x_flash.c ****   
 785:../Libraries//STM32F10x_StdPeriph_Driver/src/stm32f10x_flash.c ****       *(__IO uint16_t*)Address = (uint16_t)Data;
 786:../Libraries//STM32F10x_StdPeriph_Driver/src/stm32f10x_flash.c ****       /* Wait for last operation to be completed */
 787:../Libraries//STM32F10x_StdPeriph_Driver/src/stm32f10x_flash.c ****       status = FLASH_WaitForLastBank2Operation(ProgramTimeout);
 788:../Libraries//STM32F10x_StdPeriph_Driver/src/stm32f10x_flash.c ****  
 789:../Libraries//STM32F10x_StdPeriph_Driver/src/stm32f10x_flash.c ****       if(status == FLASH_COMPLETE)
 790:../Libraries//STM32F10x_StdPeriph_Driver/src/stm32f10x_flash.c ****       {
 791:../Libraries//STM32F10x_StdPeriph_Driver/src/stm32f10x_flash.c ****         /* if the previous operation is completed, proceed to program the new second 
 792:../Libraries//STM32F10x_StdPeriph_Driver/src/stm32f10x_flash.c ****         half word */
 793:../Libraries//STM32F10x_StdPeriph_Driver/src/stm32f10x_flash.c ****         tmp = Address + 2;
 794:../Libraries//STM32F10x_StdPeriph_Driver/src/stm32f10x_flash.c **** 
 795:../Libraries//STM32F10x_StdPeriph_Driver/src/stm32f10x_flash.c ****         *(__IO uint16_t*) tmp = Data >> 16;
 796:../Libraries//STM32F10x_StdPeriph_Driver/src/stm32f10x_flash.c ****     
 797:../Libraries//STM32F10x_StdPeriph_Driver/src/stm32f10x_flash.c ****         /* Wait for last operation to be completed */
 798:../Libraries//STM32F10x_StdPeriph_Driver/src/stm32f10x_flash.c ****         status = FLASH_WaitForLastBank2Operation(ProgramTimeout);
 799:../Libraries//STM32F10x_StdPeriph_Driver/src/stm32f10x_flash.c ****         
 800:../Libraries//STM32F10x_StdPeriph_Driver/src/stm32f10x_flash.c ****         /* Disable the PG Bit */
 801:../Libraries//STM32F10x_StdPeriph_Driver/src/stm32f10x_flash.c ****         FLASH->CR2 &= CR_PG_Reset;
 802:../Libraries//STM32F10x_StdPeriph_Driver/src/stm32f10x_flash.c ****       }
 803:../Libraries//STM32F10x_StdPeriph_Driver/src/stm32f10x_flash.c ****       else
 804:../Libraries//STM32F10x_StdPeriph_Driver/src/stm32f10x_flash.c ****       {
 805:../Libraries//STM32F10x_StdPeriph_Driver/src/stm32f10x_flash.c ****         /* Disable the PG Bit */
 806:../Libraries//STM32F10x_StdPeriph_Driver/src/stm32f10x_flash.c ****         FLASH->CR2 &= CR_PG_Reset;
 807:../Libraries//STM32F10x_StdPeriph_Driver/src/stm32f10x_flash.c ****       }
 808:../Libraries//STM32F10x_StdPeriph_Driver/src/stm32f10x_flash.c ****     }
 809:../Libraries//STM32F10x_StdPeriph_Driver/src/stm32f10x_flash.c ****   }
 810:../Libraries//STM32F10x_StdPeriph_Driver/src/stm32f10x_flash.c **** #else
 811:../Libraries//STM32F10x_StdPeriph_Driver/src/stm32f10x_flash.c ****   /* Wait for last operation to be completed */
 812:../Libraries//STM32F10x_StdPeriph_Driver/src/stm32f10x_flash.c ****   status = FLASH_WaitForLastOperation(ProgramTimeout);
 813:../Libraries//STM32F10x_StdPeriph_Driver/src/stm32f10x_flash.c ****   
 814:../Libraries//STM32F10x_StdPeriph_Driver/src/stm32f10x_flash.c ****   if(status == FLASH_COMPLETE)
 815:../Libraries//STM32F10x_StdPeriph_Driver/src/stm32f10x_flash.c ****   {
 816:../Libraries//STM32F10x_StdPeriph_Driver/src/stm32f10x_flash.c ****     /* if the previous operation is completed, proceed to program the new first 
 817:../Libraries//STM32F10x_StdPeriph_Driver/src/stm32f10x_flash.c ****     half word */
 818:../Libraries//STM32F10x_StdPeriph_Driver/src/stm32f10x_flash.c ****     FLASH->CR |= CR_PG_Set;
 819:../Libraries//STM32F10x_StdPeriph_Driver/src/stm32f10x_flash.c ****   
 820:../Libraries//STM32F10x_StdPeriph_Driver/src/stm32f10x_flash.c ****     *(__IO uint16_t*)Address = (uint16_t)Data;
 821:../Libraries//STM32F10x_StdPeriph_Driver/src/stm32f10x_flash.c ****     /* Wait for last operation to be completed */
 822:../Libraries//STM32F10x_StdPeriph_Driver/src/stm32f10x_flash.c ****     status = FLASH_WaitForLastOperation(ProgramTimeout);
 823:../Libraries//STM32F10x_StdPeriph_Driver/src/stm32f10x_flash.c ****  
 824:../Libraries//STM32F10x_StdPeriph_Driver/src/stm32f10x_flash.c ****     if(status == FLASH_COMPLETE)
 825:../Libraries//STM32F10x_StdPeriph_Driver/src/stm32f10x_flash.c ****     {
 826:../Libraries//STM32F10x_StdPeriph_Driver/src/stm32f10x_flash.c ****       /* if the previous operation is completed, proceed to program the new second 
 827:../Libraries//STM32F10x_StdPeriph_Driver/src/stm32f10x_flash.c ****       half word */
 828:../Libraries//STM32F10x_StdPeriph_Driver/src/stm32f10x_flash.c ****       tmp = Address + 2;
 829:../Libraries//STM32F10x_StdPeriph_Driver/src/stm32f10x_flash.c **** 
 830:../Libraries//STM32F10x_StdPeriph_Driver/src/stm32f10x_flash.c ****       *(__IO uint16_t*) tmp = Data >> 16;
 831:../Libraries//STM32F10x_StdPeriph_Driver/src/stm32f10x_flash.c ****     
 832:../Libraries//STM32F10x_StdPeriph_Driver/src/stm32f10x_flash.c ****       /* Wait for last operation to be completed */
 833:../Libraries//STM32F10x_StdPeriph_Driver/src/stm32f10x_flash.c ****       status = FLASH_WaitForLastOperation(ProgramTimeout);
 834:../Libraries//STM32F10x_StdPeriph_Driver/src/stm32f10x_flash.c ****         
 835:../Libraries//STM32F10x_StdPeriph_Driver/src/stm32f10x_flash.c ****       /* Disable the PG Bit */
 836:../Libraries//STM32F10x_StdPeriph_Driver/src/stm32f10x_flash.c ****       FLASH->CR &= CR_PG_Reset;
 837:../Libraries//STM32F10x_StdPeriph_Driver/src/stm32f10x_flash.c ****     }
 838:../Libraries//STM32F10x_StdPeriph_Driver/src/stm32f10x_flash.c ****     else
 839:../Libraries//STM32F10x_StdPeriph_Driver/src/stm32f10x_flash.c ****     {
 840:../Libraries//STM32F10x_StdPeriph_Driver/src/stm32f10x_flash.c ****       /* Disable the PG Bit */
 841:../Libraries//STM32F10x_StdPeriph_Driver/src/stm32f10x_flash.c ****       FLASH->CR &= CR_PG_Reset;
 842:../Libraries//STM32F10x_StdPeriph_Driver/src/stm32f10x_flash.c ****     }
 843:../Libraries//STM32F10x_StdPeriph_Driver/src/stm32f10x_flash.c ****   }         
 844:../Libraries//STM32F10x_StdPeriph_Driver/src/stm32f10x_flash.c **** #endif /* STM32F10X_XL */
 845:../Libraries//STM32F10x_StdPeriph_Driver/src/stm32f10x_flash.c ****    
 846:../Libraries//STM32F10x_StdPeriph_Driver/src/stm32f10x_flash.c ****   /* Return the Program Status */
 847:../Libraries//STM32F10x_StdPeriph_Driver/src/stm32f10x_flash.c ****   return status;
 848:../Libraries//STM32F10x_StdPeriph_Driver/src/stm32f10x_flash.c **** }
 849:../Libraries//STM32F10x_StdPeriph_Driver/src/stm32f10x_flash.c **** 
 850:../Libraries//STM32F10x_StdPeriph_Driver/src/stm32f10x_flash.c **** /**
 851:../Libraries//STM32F10x_StdPeriph_Driver/src/stm32f10x_flash.c ****   * @brief  Programs a half word at a specified address.
 852:../Libraries//STM32F10x_StdPeriph_Driver/src/stm32f10x_flash.c ****   * @note   This function can be used for all STM32F10x devices.
 853:../Libraries//STM32F10x_StdPeriph_Driver/src/stm32f10x_flash.c ****   * @param  Address: specifies the address to be programmed.
 854:../Libraries//STM32F10x_StdPeriph_Driver/src/stm32f10x_flash.c ****   * @param  Data: specifies the data to be programmed.
 855:../Libraries//STM32F10x_StdPeriph_Driver/src/stm32f10x_flash.c ****   * @retval FLASH Status: The returned value can be: FLASH_ERROR_PG,
 856:../Libraries//STM32F10x_StdPeriph_Driver/src/stm32f10x_flash.c ****   *         FLASH_ERROR_WRP, FLASH_COMPLETE or FLASH_TIMEOUT. 
 857:../Libraries//STM32F10x_StdPeriph_Driver/src/stm32f10x_flash.c ****   */
 858:../Libraries//STM32F10x_StdPeriph_Driver/src/stm32f10x_flash.c **** FLASH_Status FLASH_ProgramHalfWord(uint32_t Address, uint16_t Data)
 859:../Libraries//STM32F10x_StdPeriph_Driver/src/stm32f10x_flash.c **** {
 860:../Libraries//STM32F10x_StdPeriph_Driver/src/stm32f10x_flash.c ****   FLASH_Status status = FLASH_COMPLETE;
 861:../Libraries//STM32F10x_StdPeriph_Driver/src/stm32f10x_flash.c ****   /* Check the parameters */
 862:../Libraries//STM32F10x_StdPeriph_Driver/src/stm32f10x_flash.c ****   assert_param(IS_FLASH_ADDRESS(Address));
 863:../Libraries//STM32F10x_StdPeriph_Driver/src/stm32f10x_flash.c **** 
 864:../Libraries//STM32F10x_StdPeriph_Driver/src/stm32f10x_flash.c **** #ifdef STM32F10X_XL
 865:../Libraries//STM32F10x_StdPeriph_Driver/src/stm32f10x_flash.c ****   /* Wait for last operation to be completed */
 866:../Libraries//STM32F10x_StdPeriph_Driver/src/stm32f10x_flash.c ****   status = FLASH_WaitForLastOperation(ProgramTimeout);
 867:../Libraries//STM32F10x_StdPeriph_Driver/src/stm32f10x_flash.c ****   
 868:../Libraries//STM32F10x_StdPeriph_Driver/src/stm32f10x_flash.c ****   if(Address < FLASH_BANK1_END_ADDRESS)
 869:../Libraries//STM32F10x_StdPeriph_Driver/src/stm32f10x_flash.c ****   {
 870:../Libraries//STM32F10x_StdPeriph_Driver/src/stm32f10x_flash.c ****     if(status == FLASH_COMPLETE)
 871:../Libraries//STM32F10x_StdPeriph_Driver/src/stm32f10x_flash.c ****     {
 872:../Libraries//STM32F10x_StdPeriph_Driver/src/stm32f10x_flash.c ****       /* if the previous operation is completed, proceed to program the new data */
 873:../Libraries//STM32F10x_StdPeriph_Driver/src/stm32f10x_flash.c ****       FLASH->CR |= CR_PG_Set;
 874:../Libraries//STM32F10x_StdPeriph_Driver/src/stm32f10x_flash.c ****   
 875:../Libraries//STM32F10x_StdPeriph_Driver/src/stm32f10x_flash.c ****       *(__IO uint16_t*)Address = Data;
 876:../Libraries//STM32F10x_StdPeriph_Driver/src/stm32f10x_flash.c ****       /* Wait for last operation to be completed */
 877:../Libraries//STM32F10x_StdPeriph_Driver/src/stm32f10x_flash.c ****       status = FLASH_WaitForLastBank1Operation(ProgramTimeout);
 878:../Libraries//STM32F10x_StdPeriph_Driver/src/stm32f10x_flash.c **** 
 879:../Libraries//STM32F10x_StdPeriph_Driver/src/stm32f10x_flash.c ****       /* Disable the PG Bit */
 880:../Libraries//STM32F10x_StdPeriph_Driver/src/stm32f10x_flash.c ****       FLASH->CR &= CR_PG_Reset;
 881:../Libraries//STM32F10x_StdPeriph_Driver/src/stm32f10x_flash.c ****     }
 882:../Libraries//STM32F10x_StdPeriph_Driver/src/stm32f10x_flash.c ****   }
 883:../Libraries//STM32F10x_StdPeriph_Driver/src/stm32f10x_flash.c ****   else
 884:../Libraries//STM32F10x_StdPeriph_Driver/src/stm32f10x_flash.c ****   {
 885:../Libraries//STM32F10x_StdPeriph_Driver/src/stm32f10x_flash.c ****     if(status == FLASH_COMPLETE)
 886:../Libraries//STM32F10x_StdPeriph_Driver/src/stm32f10x_flash.c ****     {
 887:../Libraries//STM32F10x_StdPeriph_Driver/src/stm32f10x_flash.c ****       /* if the previous operation is completed, proceed to program the new data */
 888:../Libraries//STM32F10x_StdPeriph_Driver/src/stm32f10x_flash.c ****       FLASH->CR2 |= CR_PG_Set;
 889:../Libraries//STM32F10x_StdPeriph_Driver/src/stm32f10x_flash.c ****   
 890:../Libraries//STM32F10x_StdPeriph_Driver/src/stm32f10x_flash.c ****       *(__IO uint16_t*)Address = Data;
 891:../Libraries//STM32F10x_StdPeriph_Driver/src/stm32f10x_flash.c ****       /* Wait for last operation to be completed */
 892:../Libraries//STM32F10x_StdPeriph_Driver/src/stm32f10x_flash.c ****       status = FLASH_WaitForLastBank2Operation(ProgramTimeout);
 893:../Libraries//STM32F10x_StdPeriph_Driver/src/stm32f10x_flash.c **** 
 894:../Libraries//STM32F10x_StdPeriph_Driver/src/stm32f10x_flash.c ****       /* Disable the PG Bit */
 895:../Libraries//STM32F10x_StdPeriph_Driver/src/stm32f10x_flash.c ****       FLASH->CR2 &= CR_PG_Reset;
 896:../Libraries//STM32F10x_StdPeriph_Driver/src/stm32f10x_flash.c ****     }
 897:../Libraries//STM32F10x_StdPeriph_Driver/src/stm32f10x_flash.c ****   }
 898:../Libraries//STM32F10x_StdPeriph_Driver/src/stm32f10x_flash.c **** #else
 899:../Libraries//STM32F10x_StdPeriph_Driver/src/stm32f10x_flash.c ****   /* Wait for last operation to be completed */
 900:../Libraries//STM32F10x_StdPeriph_Driver/src/stm32f10x_flash.c ****   status = FLASH_WaitForLastOperation(ProgramTimeout);
 901:../Libraries//STM32F10x_StdPeriph_Driver/src/stm32f10x_flash.c ****   
 902:../Libraries//STM32F10x_StdPeriph_Driver/src/stm32f10x_flash.c ****   if(status == FLASH_COMPLETE)
 903:../Libraries//STM32F10x_StdPeriph_Driver/src/stm32f10x_flash.c ****   {
 904:../Libraries//STM32F10x_StdPeriph_Driver/src/stm32f10x_flash.c ****     /* if the previous operation is completed, proceed to program the new data */
 905:../Libraries//STM32F10x_StdPeriph_Driver/src/stm32f10x_flash.c ****     FLASH->CR |= CR_PG_Set;
 906:../Libraries//STM32F10x_StdPeriph_Driver/src/stm32f10x_flash.c ****   
 907:../Libraries//STM32F10x_StdPeriph_Driver/src/stm32f10x_flash.c ****     *(__IO uint16_t*)Address = Data;
 908:../Libraries//STM32F10x_StdPeriph_Driver/src/stm32f10x_flash.c ****     /* Wait for last operation to be completed */
 909:../Libraries//STM32F10x_StdPeriph_Driver/src/stm32f10x_flash.c ****     status = FLASH_WaitForLastOperation(ProgramTimeout);
 910:../Libraries//STM32F10x_StdPeriph_Driver/src/stm32f10x_flash.c ****     
 911:../Libraries//STM32F10x_StdPeriph_Driver/src/stm32f10x_flash.c ****     /* Disable the PG Bit */
 912:../Libraries//STM32F10x_StdPeriph_Driver/src/stm32f10x_flash.c ****     FLASH->CR &= CR_PG_Reset;
 913:../Libraries//STM32F10x_StdPeriph_Driver/src/stm32f10x_flash.c ****   } 
 914:../Libraries//STM32F10x_StdPeriph_Driver/src/stm32f10x_flash.c **** #endif  /* STM32F10X_XL */
 915:../Libraries//STM32F10x_StdPeriph_Driver/src/stm32f10x_flash.c ****   
 916:../Libraries//STM32F10x_StdPeriph_Driver/src/stm32f10x_flash.c ****   /* Return the Program Status */
 917:../Libraries//STM32F10x_StdPeriph_Driver/src/stm32f10x_flash.c ****   return status;
 918:../Libraries//STM32F10x_StdPeriph_Driver/src/stm32f10x_flash.c **** }
 919:../Libraries//STM32F10x_StdPeriph_Driver/src/stm32f10x_flash.c **** 
 920:../Libraries//STM32F10x_StdPeriph_Driver/src/stm32f10x_flash.c **** /**
 921:../Libraries//STM32F10x_StdPeriph_Driver/src/stm32f10x_flash.c ****   * @brief  Programs a half word at a specified Option Byte Data address.
 922:../Libraries//STM32F10x_StdPeriph_Driver/src/stm32f10x_flash.c ****   * @note   This function can be used for all STM32F10x devices.
 923:../Libraries//STM32F10x_StdPeriph_Driver/src/stm32f10x_flash.c ****   * @param  Address: specifies the address to be programmed.
 924:../Libraries//STM32F10x_StdPeriph_Driver/src/stm32f10x_flash.c ****   *   This parameter can be 0x1FFFF804 or 0x1FFFF806. 
 925:../Libraries//STM32F10x_StdPeriph_Driver/src/stm32f10x_flash.c ****   * @param  Data: specifies the data to be programmed.
 926:../Libraries//STM32F10x_StdPeriph_Driver/src/stm32f10x_flash.c ****   * @retval FLASH Status: The returned value can be: FLASH_ERROR_PG,
 927:../Libraries//STM32F10x_StdPeriph_Driver/src/stm32f10x_flash.c ****   *         FLASH_ERROR_WRP, FLASH_COMPLETE or FLASH_TIMEOUT. 
 928:../Libraries//STM32F10x_StdPeriph_Driver/src/stm32f10x_flash.c ****   */
 929:../Libraries//STM32F10x_StdPeriph_Driver/src/stm32f10x_flash.c **** FLASH_Status FLASH_ProgramOptionByteData(uint32_t Address, uint8_t Data)
 930:../Libraries//STM32F10x_StdPeriph_Driver/src/stm32f10x_flash.c **** {
 931:../Libraries//STM32F10x_StdPeriph_Driver/src/stm32f10x_flash.c ****   FLASH_Status status = FLASH_COMPLETE;
 932:../Libraries//STM32F10x_StdPeriph_Driver/src/stm32f10x_flash.c ****   /* Check the parameters */
 933:../Libraries//STM32F10x_StdPeriph_Driver/src/stm32f10x_flash.c ****   assert_param(IS_OB_DATA_ADDRESS(Address));
 934:../Libraries//STM32F10x_StdPeriph_Driver/src/stm32f10x_flash.c ****   status = FLASH_WaitForLastOperation(ProgramTimeout);
 935:../Libraries//STM32F10x_StdPeriph_Driver/src/stm32f10x_flash.c **** 
 936:../Libraries//STM32F10x_StdPeriph_Driver/src/stm32f10x_flash.c ****   if(status == FLASH_COMPLETE)
 937:../Libraries//STM32F10x_StdPeriph_Driver/src/stm32f10x_flash.c ****   {
 938:../Libraries//STM32F10x_StdPeriph_Driver/src/stm32f10x_flash.c ****     /* Authorize the small information block programming */
 939:../Libraries//STM32F10x_StdPeriph_Driver/src/stm32f10x_flash.c ****     FLASH->OPTKEYR = FLASH_KEY1;
 940:../Libraries//STM32F10x_StdPeriph_Driver/src/stm32f10x_flash.c ****     FLASH->OPTKEYR = FLASH_KEY2;
 941:../Libraries//STM32F10x_StdPeriph_Driver/src/stm32f10x_flash.c ****     /* Enables the Option Bytes Programming operation */
 942:../Libraries//STM32F10x_StdPeriph_Driver/src/stm32f10x_flash.c ****     FLASH->CR |= CR_OPTPG_Set; 
 943:../Libraries//STM32F10x_StdPeriph_Driver/src/stm32f10x_flash.c ****     *(__IO uint16_t*)Address = Data;
 944:../Libraries//STM32F10x_StdPeriph_Driver/src/stm32f10x_flash.c ****     
 945:../Libraries//STM32F10x_StdPeriph_Driver/src/stm32f10x_flash.c ****     /* Wait for last operation to be completed */
 946:../Libraries//STM32F10x_StdPeriph_Driver/src/stm32f10x_flash.c ****     status = FLASH_WaitForLastOperation(ProgramTimeout);
 947:../Libraries//STM32F10x_StdPeriph_Driver/src/stm32f10x_flash.c ****     if(status != FLASH_TIMEOUT)
 948:../Libraries//STM32F10x_StdPeriph_Driver/src/stm32f10x_flash.c ****     {
 949:../Libraries//STM32F10x_StdPeriph_Driver/src/stm32f10x_flash.c ****       /* if the program operation is completed, disable the OPTPG Bit */
 950:../Libraries//STM32F10x_StdPeriph_Driver/src/stm32f10x_flash.c ****       FLASH->CR &= CR_OPTPG_Reset;
 951:../Libraries//STM32F10x_StdPeriph_Driver/src/stm32f10x_flash.c ****     }
 952:../Libraries//STM32F10x_StdPeriph_Driver/src/stm32f10x_flash.c ****   }
 953:../Libraries//STM32F10x_StdPeriph_Driver/src/stm32f10x_flash.c ****   /* Return the Option Byte Data Program Status */
 954:../Libraries//STM32F10x_StdPeriph_Driver/src/stm32f10x_flash.c ****   return status;
 955:../Libraries//STM32F10x_StdPeriph_Driver/src/stm32f10x_flash.c **** }
 956:../Libraries//STM32F10x_StdPeriph_Driver/src/stm32f10x_flash.c **** 
 957:../Libraries//STM32F10x_StdPeriph_Driver/src/stm32f10x_flash.c **** /**
 958:../Libraries//STM32F10x_StdPeriph_Driver/src/stm32f10x_flash.c ****   * @brief  Write protects the desired pages
 959:../Libraries//STM32F10x_StdPeriph_Driver/src/stm32f10x_flash.c ****   * @note   This function can be used for all STM32F10x devices.
 960:../Libraries//STM32F10x_StdPeriph_Driver/src/stm32f10x_flash.c ****   * @param  FLASH_Pages: specifies the address of the pages to be write protected.
 961:../Libraries//STM32F10x_StdPeriph_Driver/src/stm32f10x_flash.c ****   *   This parameter can be:
 962:../Libraries//STM32F10x_StdPeriph_Driver/src/stm32f10x_flash.c ****   *     @arg For @b STM32_Low-density_devices: value between FLASH_WRProt_Pages0to3 and FLASH_WRPro
 963:../Libraries//STM32F10x_StdPeriph_Driver/src/stm32f10x_flash.c ****   *     @arg For @b STM32_Medium-density_devices: value between FLASH_WRProt_Pages0to3
 964:../Libraries//STM32F10x_StdPeriph_Driver/src/stm32f10x_flash.c ****   *       and FLASH_WRProt_Pages124to127
 965:../Libraries//STM32F10x_StdPeriph_Driver/src/stm32f10x_flash.c ****   *     @arg For @b STM32_High-density_devices: value between FLASH_WRProt_Pages0to1 and
 966:../Libraries//STM32F10x_StdPeriph_Driver/src/stm32f10x_flash.c ****   *       FLASH_WRProt_Pages60to61 or FLASH_WRProt_Pages62to255
 967:../Libraries//STM32F10x_StdPeriph_Driver/src/stm32f10x_flash.c ****   *     @arg For @b STM32_Connectivity_line_devices: value between FLASH_WRProt_Pages0to1 and
 968:../Libraries//STM32F10x_StdPeriph_Driver/src/stm32f10x_flash.c ****   *       FLASH_WRProt_Pages60to61 or FLASH_WRProt_Pages62to127    
 969:../Libraries//STM32F10x_StdPeriph_Driver/src/stm32f10x_flash.c ****   *     @arg For @b STM32_XL-density_devices: value between FLASH_WRProt_Pages0to1 and
 970:../Libraries//STM32F10x_StdPeriph_Driver/src/stm32f10x_flash.c ****   *       FLASH_WRProt_Pages60to61 or FLASH_WRProt_Pages62to511
 971:../Libraries//STM32F10x_StdPeriph_Driver/src/stm32f10x_flash.c ****   *     @arg FLASH_WRProt_AllPages
 972:../Libraries//STM32F10x_StdPeriph_Driver/src/stm32f10x_flash.c ****   * @retval FLASH Status: The returned value can be: FLASH_ERROR_PG,
 973:../Libraries//STM32F10x_StdPeriph_Driver/src/stm32f10x_flash.c ****   *         FLASH_ERROR_WRP, FLASH_COMPLETE or FLASH_TIMEOUT.
 974:../Libraries//STM32F10x_StdPeriph_Driver/src/stm32f10x_flash.c ****   */
 975:../Libraries//STM32F10x_StdPeriph_Driver/src/stm32f10x_flash.c **** FLASH_Status FLASH_EnableWriteProtection(uint32_t FLASH_Pages)
 976:../Libraries//STM32F10x_StdPeriph_Driver/src/stm32f10x_flash.c **** {
 977:../Libraries//STM32F10x_StdPeriph_Driver/src/stm32f10x_flash.c ****   uint16_t WRP0_Data = 0xFFFF, WRP1_Data = 0xFFFF, WRP2_Data = 0xFFFF, WRP3_Data = 0xFFFF;
 978:../Libraries//STM32F10x_StdPeriph_Driver/src/stm32f10x_flash.c ****   
 979:../Libraries//STM32F10x_StdPeriph_Driver/src/stm32f10x_flash.c ****   FLASH_Status status = FLASH_COMPLETE;
 980:../Libraries//STM32F10x_StdPeriph_Driver/src/stm32f10x_flash.c ****   
 981:../Libraries//STM32F10x_StdPeriph_Driver/src/stm32f10x_flash.c ****   /* Check the parameters */
 982:../Libraries//STM32F10x_StdPeriph_Driver/src/stm32f10x_flash.c ****   assert_param(IS_FLASH_WRPROT_PAGE(FLASH_Pages));
 983:../Libraries//STM32F10x_StdPeriph_Driver/src/stm32f10x_flash.c ****   
 984:../Libraries//STM32F10x_StdPeriph_Driver/src/stm32f10x_flash.c ****   FLASH_Pages = (uint32_t)(~FLASH_Pages);
 985:../Libraries//STM32F10x_StdPeriph_Driver/src/stm32f10x_flash.c ****   WRP0_Data = (uint16_t)(FLASH_Pages & WRP0_Mask);
 986:../Libraries//STM32F10x_StdPeriph_Driver/src/stm32f10x_flash.c ****   WRP1_Data = (uint16_t)((FLASH_Pages & WRP1_Mask) >> 8);
 987:../Libraries//STM32F10x_StdPeriph_Driver/src/stm32f10x_flash.c ****   WRP2_Data = (uint16_t)((FLASH_Pages & WRP2_Mask) >> 16);
 988:../Libraries//STM32F10x_StdPeriph_Driver/src/stm32f10x_flash.c ****   WRP3_Data = (uint16_t)((FLASH_Pages & WRP3_Mask) >> 24);
 989:../Libraries//STM32F10x_StdPeriph_Driver/src/stm32f10x_flash.c ****   
 990:../Libraries//STM32F10x_StdPeriph_Driver/src/stm32f10x_flash.c ****   /* Wait for last operation to be completed */
 991:../Libraries//STM32F10x_StdPeriph_Driver/src/stm32f10x_flash.c ****   status = FLASH_WaitForLastOperation(ProgramTimeout);
 992:../Libraries//STM32F10x_StdPeriph_Driver/src/stm32f10x_flash.c ****   
 993:../Libraries//STM32F10x_StdPeriph_Driver/src/stm32f10x_flash.c ****   if(status == FLASH_COMPLETE)
 994:../Libraries//STM32F10x_StdPeriph_Driver/src/stm32f10x_flash.c ****   {
 995:../Libraries//STM32F10x_StdPeriph_Driver/src/stm32f10x_flash.c ****     /* Authorizes the small information block programming */
 996:../Libraries//STM32F10x_StdPeriph_Driver/src/stm32f10x_flash.c ****     FLASH->OPTKEYR = FLASH_KEY1;
 997:../Libraries//STM32F10x_StdPeriph_Driver/src/stm32f10x_flash.c ****     FLASH->OPTKEYR = FLASH_KEY2;
 998:../Libraries//STM32F10x_StdPeriph_Driver/src/stm32f10x_flash.c ****     FLASH->CR |= CR_OPTPG_Set;
 999:../Libraries//STM32F10x_StdPeriph_Driver/src/stm32f10x_flash.c ****     if(WRP0_Data != 0xFF)
1000:../Libraries//STM32F10x_StdPeriph_Driver/src/stm32f10x_flash.c ****     {
1001:../Libraries//STM32F10x_StdPeriph_Driver/src/stm32f10x_flash.c ****       OB->WRP0 = WRP0_Data;
1002:../Libraries//STM32F10x_StdPeriph_Driver/src/stm32f10x_flash.c ****       
1003:../Libraries//STM32F10x_StdPeriph_Driver/src/stm32f10x_flash.c ****       /* Wait for last operation to be completed */
1004:../Libraries//STM32F10x_StdPeriph_Driver/src/stm32f10x_flash.c ****       status = FLASH_WaitForLastOperation(ProgramTimeout);
1005:../Libraries//STM32F10x_StdPeriph_Driver/src/stm32f10x_flash.c ****     }
1006:../Libraries//STM32F10x_StdPeriph_Driver/src/stm32f10x_flash.c ****     if((status == FLASH_COMPLETE) && (WRP1_Data != 0xFF))
1007:../Libraries//STM32F10x_StdPeriph_Driver/src/stm32f10x_flash.c ****     {
1008:../Libraries//STM32F10x_StdPeriph_Driver/src/stm32f10x_flash.c ****       OB->WRP1 = WRP1_Data;
1009:../Libraries//STM32F10x_StdPeriph_Driver/src/stm32f10x_flash.c ****       
1010:../Libraries//STM32F10x_StdPeriph_Driver/src/stm32f10x_flash.c ****       /* Wait for last operation to be completed */
1011:../Libraries//STM32F10x_StdPeriph_Driver/src/stm32f10x_flash.c ****       status = FLASH_WaitForLastOperation(ProgramTimeout);
1012:../Libraries//STM32F10x_StdPeriph_Driver/src/stm32f10x_flash.c ****     }
1013:../Libraries//STM32F10x_StdPeriph_Driver/src/stm32f10x_flash.c ****     if((status == FLASH_COMPLETE) && (WRP2_Data != 0xFF))
1014:../Libraries//STM32F10x_StdPeriph_Driver/src/stm32f10x_flash.c ****     {
1015:../Libraries//STM32F10x_StdPeriph_Driver/src/stm32f10x_flash.c ****       OB->WRP2 = WRP2_Data;
1016:../Libraries//STM32F10x_StdPeriph_Driver/src/stm32f10x_flash.c ****       
1017:../Libraries//STM32F10x_StdPeriph_Driver/src/stm32f10x_flash.c ****       /* Wait for last operation to be completed */
1018:../Libraries//STM32F10x_StdPeriph_Driver/src/stm32f10x_flash.c ****       status = FLASH_WaitForLastOperation(ProgramTimeout);
1019:../Libraries//STM32F10x_StdPeriph_Driver/src/stm32f10x_flash.c ****     }
1020:../Libraries//STM32F10x_StdPeriph_Driver/src/stm32f10x_flash.c ****     
1021:../Libraries//STM32F10x_StdPeriph_Driver/src/stm32f10x_flash.c ****     if((status == FLASH_COMPLETE)&& (WRP3_Data != 0xFF))
1022:../Libraries//STM32F10x_StdPeriph_Driver/src/stm32f10x_flash.c ****     {
1023:../Libraries//STM32F10x_StdPeriph_Driver/src/stm32f10x_flash.c ****       OB->WRP3 = WRP3_Data;
1024:../Libraries//STM32F10x_StdPeriph_Driver/src/stm32f10x_flash.c ****      
1025:../Libraries//STM32F10x_StdPeriph_Driver/src/stm32f10x_flash.c ****       /* Wait for last operation to be completed */
1026:../Libraries//STM32F10x_StdPeriph_Driver/src/stm32f10x_flash.c ****       status = FLASH_WaitForLastOperation(ProgramTimeout);
1027:../Libraries//STM32F10x_StdPeriph_Driver/src/stm32f10x_flash.c ****     }
1028:../Libraries//STM32F10x_StdPeriph_Driver/src/stm32f10x_flash.c ****           
1029:../Libraries//STM32F10x_StdPeriph_Driver/src/stm32f10x_flash.c ****     if(status != FLASH_TIMEOUT)
1030:../Libraries//STM32F10x_StdPeriph_Driver/src/stm32f10x_flash.c ****     {
1031:../Libraries//STM32F10x_StdPeriph_Driver/src/stm32f10x_flash.c ****       /* if the program operation is completed, disable the OPTPG Bit */
1032:../Libraries//STM32F10x_StdPeriph_Driver/src/stm32f10x_flash.c ****       FLASH->CR &= CR_OPTPG_Reset;
1033:../Libraries//STM32F10x_StdPeriph_Driver/src/stm32f10x_flash.c ****     }
1034:../Libraries//STM32F10x_StdPeriph_Driver/src/stm32f10x_flash.c ****   } 
1035:../Libraries//STM32F10x_StdPeriph_Driver/src/stm32f10x_flash.c ****   /* Return the write protection operation Status */
1036:../Libraries//STM32F10x_StdPeriph_Driver/src/stm32f10x_flash.c ****   return status;       
1037:../Libraries//STM32F10x_StdPeriph_Driver/src/stm32f10x_flash.c **** }
1038:../Libraries//STM32F10x_StdPeriph_Driver/src/stm32f10x_flash.c **** 
1039:../Libraries//STM32F10x_StdPeriph_Driver/src/stm32f10x_flash.c **** /**
1040:../Libraries//STM32F10x_StdPeriph_Driver/src/stm32f10x_flash.c ****   * @brief  Enables or disables the read out protection.
1041:../Libraries//STM32F10x_StdPeriph_Driver/src/stm32f10x_flash.c ****   * @note   If the user has already programmed the other option bytes before calling 
1042:../Libraries//STM32F10x_StdPeriph_Driver/src/stm32f10x_flash.c ****   *   this function, he must re-program them since this function erases all option bytes.
1043:../Libraries//STM32F10x_StdPeriph_Driver/src/stm32f10x_flash.c ****   * @note   This function can be used for all STM32F10x devices.
1044:../Libraries//STM32F10x_StdPeriph_Driver/src/stm32f10x_flash.c ****   * @param  Newstate: new state of the ReadOut Protection.
1045:../Libraries//STM32F10x_StdPeriph_Driver/src/stm32f10x_flash.c ****   *   This parameter can be: ENABLE or DISABLE.
1046:../Libraries//STM32F10x_StdPeriph_Driver/src/stm32f10x_flash.c ****   * @retval FLASH Status: The returned value can be: FLASH_ERROR_PG,
1047:../Libraries//STM32F10x_StdPeriph_Driver/src/stm32f10x_flash.c ****   *         FLASH_ERROR_WRP, FLASH_COMPLETE or FLASH_TIMEOUT.
1048:../Libraries//STM32F10x_StdPeriph_Driver/src/stm32f10x_flash.c ****   */
1049:../Libraries//STM32F10x_StdPeriph_Driver/src/stm32f10x_flash.c **** FLASH_Status FLASH_ReadOutProtection(FunctionalState NewState)
1050:../Libraries//STM32F10x_StdPeriph_Driver/src/stm32f10x_flash.c **** {
1051:../Libraries//STM32F10x_StdPeriph_Driver/src/stm32f10x_flash.c ****   FLASH_Status status = FLASH_COMPLETE;
1052:../Libraries//STM32F10x_StdPeriph_Driver/src/stm32f10x_flash.c ****   /* Check the parameters */
1053:../Libraries//STM32F10x_StdPeriph_Driver/src/stm32f10x_flash.c ****   assert_param(IS_FUNCTIONAL_STATE(NewState));
1054:../Libraries//STM32F10x_StdPeriph_Driver/src/stm32f10x_flash.c ****   status = FLASH_WaitForLastOperation(EraseTimeout);
1055:../Libraries//STM32F10x_StdPeriph_Driver/src/stm32f10x_flash.c ****   if(status == FLASH_COMPLETE)
1056:../Libraries//STM32F10x_StdPeriph_Driver/src/stm32f10x_flash.c ****   {
1057:../Libraries//STM32F10x_StdPeriph_Driver/src/stm32f10x_flash.c ****     /* Authorizes the small information block programming */
1058:../Libraries//STM32F10x_StdPeriph_Driver/src/stm32f10x_flash.c ****     FLASH->OPTKEYR = FLASH_KEY1;
1059:../Libraries//STM32F10x_StdPeriph_Driver/src/stm32f10x_flash.c ****     FLASH->OPTKEYR = FLASH_KEY2;
1060:../Libraries//STM32F10x_StdPeriph_Driver/src/stm32f10x_flash.c ****     FLASH->CR |= CR_OPTER_Set;
1061:../Libraries//STM32F10x_StdPeriph_Driver/src/stm32f10x_flash.c ****     FLASH->CR |= CR_STRT_Set;
1062:../Libraries//STM32F10x_StdPeriph_Driver/src/stm32f10x_flash.c ****     /* Wait for last operation to be completed */
1063:../Libraries//STM32F10x_StdPeriph_Driver/src/stm32f10x_flash.c ****     status = FLASH_WaitForLastOperation(EraseTimeout);
1064:../Libraries//STM32F10x_StdPeriph_Driver/src/stm32f10x_flash.c ****     if(status == FLASH_COMPLETE)
1065:../Libraries//STM32F10x_StdPeriph_Driver/src/stm32f10x_flash.c ****     {
1066:../Libraries//STM32F10x_StdPeriph_Driver/src/stm32f10x_flash.c ****       /* if the erase operation is completed, disable the OPTER Bit */
1067:../Libraries//STM32F10x_StdPeriph_Driver/src/stm32f10x_flash.c ****       FLASH->CR &= CR_OPTER_Reset;
1068:../Libraries//STM32F10x_StdPeriph_Driver/src/stm32f10x_flash.c ****       /* Enable the Option Bytes Programming operation */
1069:../Libraries//STM32F10x_StdPeriph_Driver/src/stm32f10x_flash.c ****       FLASH->CR |= CR_OPTPG_Set; 
1070:../Libraries//STM32F10x_StdPeriph_Driver/src/stm32f10x_flash.c ****       if(NewState != DISABLE)
1071:../Libraries//STM32F10x_StdPeriph_Driver/src/stm32f10x_flash.c ****       {
1072:../Libraries//STM32F10x_StdPeriph_Driver/src/stm32f10x_flash.c ****         OB->RDP = 0x00;
1073:../Libraries//STM32F10x_StdPeriph_Driver/src/stm32f10x_flash.c ****       }
1074:../Libraries//STM32F10x_StdPeriph_Driver/src/stm32f10x_flash.c ****       else
1075:../Libraries//STM32F10x_StdPeriph_Driver/src/stm32f10x_flash.c ****       {
1076:../Libraries//STM32F10x_StdPeriph_Driver/src/stm32f10x_flash.c ****         OB->RDP = RDP_Key;  
1077:../Libraries//STM32F10x_StdPeriph_Driver/src/stm32f10x_flash.c ****       }
1078:../Libraries//STM32F10x_StdPeriph_Driver/src/stm32f10x_flash.c ****       /* Wait for last operation to be completed */
1079:../Libraries//STM32F10x_StdPeriph_Driver/src/stm32f10x_flash.c ****       status = FLASH_WaitForLastOperation(EraseTimeout); 
1080:../Libraries//STM32F10x_StdPeriph_Driver/src/stm32f10x_flash.c ****     
1081:../Libraries//STM32F10x_StdPeriph_Driver/src/stm32f10x_flash.c ****       if(status != FLASH_TIMEOUT)
1082:../Libraries//STM32F10x_StdPeriph_Driver/src/stm32f10x_flash.c ****       {
1083:../Libraries//STM32F10x_StdPeriph_Driver/src/stm32f10x_flash.c ****         /* if the program operation is completed, disable the OPTPG Bit */
1084:../Libraries//STM32F10x_StdPeriph_Driver/src/stm32f10x_flash.c ****         FLASH->CR &= CR_OPTPG_Reset;
1085:../Libraries//STM32F10x_StdPeriph_Driver/src/stm32f10x_flash.c ****       }
1086:../Libraries//STM32F10x_StdPeriph_Driver/src/stm32f10x_flash.c ****     }
1087:../Libraries//STM32F10x_StdPeriph_Driver/src/stm32f10x_flash.c ****     else 
1088:../Libraries//STM32F10x_StdPeriph_Driver/src/stm32f10x_flash.c ****     {
1089:../Libraries//STM32F10x_StdPeriph_Driver/src/stm32f10x_flash.c ****       if(status != FLASH_TIMEOUT)
1090:../Libraries//STM32F10x_StdPeriph_Driver/src/stm32f10x_flash.c ****       {
1091:../Libraries//STM32F10x_StdPeriph_Driver/src/stm32f10x_flash.c ****         /* Disable the OPTER Bit */
1092:../Libraries//STM32F10x_StdPeriph_Driver/src/stm32f10x_flash.c ****         FLASH->CR &= CR_OPTER_Reset;
1093:../Libraries//STM32F10x_StdPeriph_Driver/src/stm32f10x_flash.c ****       }
1094:../Libraries//STM32F10x_StdPeriph_Driver/src/stm32f10x_flash.c ****     }
1095:../Libraries//STM32F10x_StdPeriph_Driver/src/stm32f10x_flash.c ****   }
1096:../Libraries//STM32F10x_StdPeriph_Driver/src/stm32f10x_flash.c ****   /* Return the protection operation Status */
1097:../Libraries//STM32F10x_StdPeriph_Driver/src/stm32f10x_flash.c ****   return status;       
1098:../Libraries//STM32F10x_StdPeriph_Driver/src/stm32f10x_flash.c **** }
1099:../Libraries//STM32F10x_StdPeriph_Driver/src/stm32f10x_flash.c **** 
1100:../Libraries//STM32F10x_StdPeriph_Driver/src/stm32f10x_flash.c **** /**
1101:../Libraries//STM32F10x_StdPeriph_Driver/src/stm32f10x_flash.c ****   * @brief  Programs the FLASH User Option Byte: IWDG_SW / RST_STOP / RST_STDBY.
1102:../Libraries//STM32F10x_StdPeriph_Driver/src/stm32f10x_flash.c ****   * @note   This function can be used for all STM32F10x devices.
1103:../Libraries//STM32F10x_StdPeriph_Driver/src/stm32f10x_flash.c ****   * @param  OB_IWDG: Selects the IWDG mode
1104:../Libraries//STM32F10x_StdPeriph_Driver/src/stm32f10x_flash.c ****   *   This parameter can be one of the following values:
1105:../Libraries//STM32F10x_StdPeriph_Driver/src/stm32f10x_flash.c ****   *     @arg OB_IWDG_SW: Software IWDG selected
1106:../Libraries//STM32F10x_StdPeriph_Driver/src/stm32f10x_flash.c ****   *     @arg OB_IWDG_HW: Hardware IWDG selected
1107:../Libraries//STM32F10x_StdPeriph_Driver/src/stm32f10x_flash.c ****   * @param  OB_STOP: Reset event when entering STOP mode.
1108:../Libraries//STM32F10x_StdPeriph_Driver/src/stm32f10x_flash.c ****   *   This parameter can be one of the following values:
1109:../Libraries//STM32F10x_StdPeriph_Driver/src/stm32f10x_flash.c ****   *     @arg OB_STOP_NoRST: No reset generated when entering in STOP
1110:../Libraries//STM32F10x_StdPeriph_Driver/src/stm32f10x_flash.c ****   *     @arg OB_STOP_RST: Reset generated when entering in STOP
1111:../Libraries//STM32F10x_StdPeriph_Driver/src/stm32f10x_flash.c ****   * @param  OB_STDBY: Reset event when entering Standby mode.
1112:../Libraries//STM32F10x_StdPeriph_Driver/src/stm32f10x_flash.c ****   *   This parameter can be one of the following values:
1113:../Libraries//STM32F10x_StdPeriph_Driver/src/stm32f10x_flash.c ****   *     @arg OB_STDBY_NoRST: No reset generated when entering in STANDBY
1114:../Libraries//STM32F10x_StdPeriph_Driver/src/stm32f10x_flash.c ****   *     @arg OB_STDBY_RST: Reset generated when entering in STANDBY
1115:../Libraries//STM32F10x_StdPeriph_Driver/src/stm32f10x_flash.c ****   * @retval FLASH Status: The returned value can be: FLASH_ERROR_PG, 
1116:../Libraries//STM32F10x_StdPeriph_Driver/src/stm32f10x_flash.c ****   *         FLASH_ERROR_WRP, FLASH_COMPLETE or FLASH_TIMEOUT.
1117:../Libraries//STM32F10x_StdPeriph_Driver/src/stm32f10x_flash.c ****   */
1118:../Libraries//STM32F10x_StdPeriph_Driver/src/stm32f10x_flash.c **** FLASH_Status FLASH_UserOptionByteConfig(uint16_t OB_IWDG, uint16_t OB_STOP, uint16_t OB_STDBY)
1119:../Libraries//STM32F10x_StdPeriph_Driver/src/stm32f10x_flash.c **** {
1120:../Libraries//STM32F10x_StdPeriph_Driver/src/stm32f10x_flash.c ****   FLASH_Status status = FLASH_COMPLETE; 
1121:../Libraries//STM32F10x_StdPeriph_Driver/src/stm32f10x_flash.c **** 
1122:../Libraries//STM32F10x_StdPeriph_Driver/src/stm32f10x_flash.c ****   /* Check the parameters */
1123:../Libraries//STM32F10x_StdPeriph_Driver/src/stm32f10x_flash.c ****   assert_param(IS_OB_IWDG_SOURCE(OB_IWDG));
1124:../Libraries//STM32F10x_StdPeriph_Driver/src/stm32f10x_flash.c ****   assert_param(IS_OB_STOP_SOURCE(OB_STOP));
1125:../Libraries//STM32F10x_StdPeriph_Driver/src/stm32f10x_flash.c ****   assert_param(IS_OB_STDBY_SOURCE(OB_STDBY));
1126:../Libraries//STM32F10x_StdPeriph_Driver/src/stm32f10x_flash.c **** 
1127:../Libraries//STM32F10x_StdPeriph_Driver/src/stm32f10x_flash.c ****   /* Authorize the small information block programming */
1128:../Libraries//STM32F10x_StdPeriph_Driver/src/stm32f10x_flash.c ****   FLASH->OPTKEYR = FLASH_KEY1;
1129:../Libraries//STM32F10x_StdPeriph_Driver/src/stm32f10x_flash.c ****   FLASH->OPTKEYR = FLASH_KEY2;
1130:../Libraries//STM32F10x_StdPeriph_Driver/src/stm32f10x_flash.c ****   
1131:../Libraries//STM32F10x_StdPeriph_Driver/src/stm32f10x_flash.c ****   /* Wait for last operation to be completed */
1132:../Libraries//STM32F10x_StdPeriph_Driver/src/stm32f10x_flash.c ****   status = FLASH_WaitForLastOperation(ProgramTimeout);
1133:../Libraries//STM32F10x_StdPeriph_Driver/src/stm32f10x_flash.c ****   
1134:../Libraries//STM32F10x_StdPeriph_Driver/src/stm32f10x_flash.c ****   if(status == FLASH_COMPLETE)
1135:../Libraries//STM32F10x_StdPeriph_Driver/src/stm32f10x_flash.c ****   {  
1136:../Libraries//STM32F10x_StdPeriph_Driver/src/stm32f10x_flash.c ****     /* Enable the Option Bytes Programming operation */
1137:../Libraries//STM32F10x_StdPeriph_Driver/src/stm32f10x_flash.c ****     FLASH->CR |= CR_OPTPG_Set; 
1138:../Libraries//STM32F10x_StdPeriph_Driver/src/stm32f10x_flash.c ****            
1139:../Libraries//STM32F10x_StdPeriph_Driver/src/stm32f10x_flash.c ****     OB->USER = OB_IWDG | (uint16_t)(OB_STOP | (uint16_t)(OB_STDBY | ((uint16_t)0xF8))); 
1140:../Libraries//STM32F10x_StdPeriph_Driver/src/stm32f10x_flash.c ****   
1141:../Libraries//STM32F10x_StdPeriph_Driver/src/stm32f10x_flash.c ****     /* Wait for last operation to be completed */
1142:../Libraries//STM32F10x_StdPeriph_Driver/src/stm32f10x_flash.c ****     status = FLASH_WaitForLastOperation(ProgramTimeout);
1143:../Libraries//STM32F10x_StdPeriph_Driver/src/stm32f10x_flash.c ****     if(status != FLASH_TIMEOUT)
1144:../Libraries//STM32F10x_StdPeriph_Driver/src/stm32f10x_flash.c ****     {
1145:../Libraries//STM32F10x_StdPeriph_Driver/src/stm32f10x_flash.c ****       /* if the program operation is completed, disable the OPTPG Bit */
1146:../Libraries//STM32F10x_StdPeriph_Driver/src/stm32f10x_flash.c ****       FLASH->CR &= CR_OPTPG_Reset;
1147:../Libraries//STM32F10x_StdPeriph_Driver/src/stm32f10x_flash.c ****     }
1148:../Libraries//STM32F10x_StdPeriph_Driver/src/stm32f10x_flash.c ****   }    
1149:../Libraries//STM32F10x_StdPeriph_Driver/src/stm32f10x_flash.c ****   /* Return the Option Byte program Status */
1150:../Libraries//STM32F10x_StdPeriph_Driver/src/stm32f10x_flash.c ****   return status;
1151:../Libraries//STM32F10x_StdPeriph_Driver/src/stm32f10x_flash.c **** }
1152:../Libraries//STM32F10x_StdPeriph_Driver/src/stm32f10x_flash.c **** 
1153:../Libraries//STM32F10x_StdPeriph_Driver/src/stm32f10x_flash.c **** #ifdef STM32F10X_XL
1154:../Libraries//STM32F10x_StdPeriph_Driver/src/stm32f10x_flash.c **** /**
1155:../Libraries//STM32F10x_StdPeriph_Driver/src/stm32f10x_flash.c ****   * @brief  Configures to boot from Bank1 or Bank2.  
1156:../Libraries//STM32F10x_StdPeriph_Driver/src/stm32f10x_flash.c ****   * @note   This function can be used only for STM32F10x_XL density devices.
1157:../Libraries//STM32F10x_StdPeriph_Driver/src/stm32f10x_flash.c ****   * @param  FLASH_BOOT: select the FLASH Bank to boot from.
1158:../Libraries//STM32F10x_StdPeriph_Driver/src/stm32f10x_flash.c ****   *   This parameter can be one of the following values:
1159:../Libraries//STM32F10x_StdPeriph_Driver/src/stm32f10x_flash.c ****   *     @arg FLASH_BOOT_Bank1: At startup, if boot pins are set in boot from user Flash
1160:../Libraries//STM32F10x_StdPeriph_Driver/src/stm32f10x_flash.c ****   *        position and this parameter is selected the device will boot from Bank1(Default).
1161:../Libraries//STM32F10x_StdPeriph_Driver/src/stm32f10x_flash.c ****   *     @arg FLASH_BOOT_Bank2: At startup, if boot pins are set in boot from user Flash
1162:../Libraries//STM32F10x_StdPeriph_Driver/src/stm32f10x_flash.c ****   *        position and this parameter is selected the device will boot from Bank2 or Bank1,
1163:../Libraries//STM32F10x_StdPeriph_Driver/src/stm32f10x_flash.c ****   *        depending on the activation of the bank. The active banks are checked in
1164:../Libraries//STM32F10x_StdPeriph_Driver/src/stm32f10x_flash.c ****   *        the following order: Bank2, followed by Bank1.
1165:../Libraries//STM32F10x_StdPeriph_Driver/src/stm32f10x_flash.c ****   *        The active bank is recognized by the value programmed at the base address
1166:../Libraries//STM32F10x_StdPeriph_Driver/src/stm32f10x_flash.c ****   *        of the respective bank (corresponding to the initial stack pointer value
1167:../Libraries//STM32F10x_StdPeriph_Driver/src/stm32f10x_flash.c ****   *        in the interrupt vector table).
1168:../Libraries//STM32F10x_StdPeriph_Driver/src/stm32f10x_flash.c ****   *        For more information, please refer to AN2606 from www.st.com.    
1169:../Libraries//STM32F10x_StdPeriph_Driver/src/stm32f10x_flash.c ****   * @retval FLASH Status: The returned value can be: FLASH_ERROR_PG, 
1170:../Libraries//STM32F10x_StdPeriph_Driver/src/stm32f10x_flash.c ****   *         FLASH_ERROR_WRP, FLASH_COMPLETE or FLASH_TIMEOUT.
1171:../Libraries//STM32F10x_StdPeriph_Driver/src/stm32f10x_flash.c ****   */
1172:../Libraries//STM32F10x_StdPeriph_Driver/src/stm32f10x_flash.c **** FLASH_Status FLASH_BootConfig(uint16_t FLASH_BOOT)
1173:../Libraries//STM32F10x_StdPeriph_Driver/src/stm32f10x_flash.c **** { 
1174:../Libraries//STM32F10x_StdPeriph_Driver/src/stm32f10x_flash.c ****   FLASH_Status status = FLASH_COMPLETE; 
1175:../Libraries//STM32F10x_StdPeriph_Driver/src/stm32f10x_flash.c ****   assert_param(IS_FLASH_BOOT(FLASH_BOOT));
1176:../Libraries//STM32F10x_StdPeriph_Driver/src/stm32f10x_flash.c ****   /* Authorize the small information block programming */
1177:../Libraries//STM32F10x_StdPeriph_Driver/src/stm32f10x_flash.c ****   FLASH->OPTKEYR = FLASH_KEY1;
1178:../Libraries//STM32F10x_StdPeriph_Driver/src/stm32f10x_flash.c ****   FLASH->OPTKEYR = FLASH_KEY2;
1179:../Libraries//STM32F10x_StdPeriph_Driver/src/stm32f10x_flash.c ****   
1180:../Libraries//STM32F10x_StdPeriph_Driver/src/stm32f10x_flash.c ****   /* Wait for last operation to be completed */
1181:../Libraries//STM32F10x_StdPeriph_Driver/src/stm32f10x_flash.c ****   status = FLASH_WaitForLastOperation(ProgramTimeout);
1182:../Libraries//STM32F10x_StdPeriph_Driver/src/stm32f10x_flash.c ****   
1183:../Libraries//STM32F10x_StdPeriph_Driver/src/stm32f10x_flash.c ****   if(status == FLASH_COMPLETE)
1184:../Libraries//STM32F10x_StdPeriph_Driver/src/stm32f10x_flash.c ****   {  
1185:../Libraries//STM32F10x_StdPeriph_Driver/src/stm32f10x_flash.c ****     /* Enable the Option Bytes Programming operation */
1186:../Libraries//STM32F10x_StdPeriph_Driver/src/stm32f10x_flash.c ****     FLASH->CR |= CR_OPTPG_Set; 
1187:../Libraries//STM32F10x_StdPeriph_Driver/src/stm32f10x_flash.c **** 
1188:../Libraries//STM32F10x_StdPeriph_Driver/src/stm32f10x_flash.c ****     if(FLASH_BOOT == FLASH_BOOT_Bank1)
1189:../Libraries//STM32F10x_StdPeriph_Driver/src/stm32f10x_flash.c ****     {
1190:../Libraries//STM32F10x_StdPeriph_Driver/src/stm32f10x_flash.c ****       OB->USER |= OB_USER_BFB2;
1191:../Libraries//STM32F10x_StdPeriph_Driver/src/stm32f10x_flash.c ****     }
1192:../Libraries//STM32F10x_StdPeriph_Driver/src/stm32f10x_flash.c ****     else
1193:../Libraries//STM32F10x_StdPeriph_Driver/src/stm32f10x_flash.c ****     {
1194:../Libraries//STM32F10x_StdPeriph_Driver/src/stm32f10x_flash.c ****       OB->USER &= (uint16_t)(~(uint16_t)(OB_USER_BFB2));
1195:../Libraries//STM32F10x_StdPeriph_Driver/src/stm32f10x_flash.c ****     }
1196:../Libraries//STM32F10x_StdPeriph_Driver/src/stm32f10x_flash.c ****     /* Wait for last operation to be completed */
1197:../Libraries//STM32F10x_StdPeriph_Driver/src/stm32f10x_flash.c ****     status = FLASH_WaitForLastOperation(ProgramTimeout);
1198:../Libraries//STM32F10x_StdPeriph_Driver/src/stm32f10x_flash.c ****     if(status != FLASH_TIMEOUT)
1199:../Libraries//STM32F10x_StdPeriph_Driver/src/stm32f10x_flash.c ****     {
1200:../Libraries//STM32F10x_StdPeriph_Driver/src/stm32f10x_flash.c ****       /* if the program operation is completed, disable the OPTPG Bit */
1201:../Libraries//STM32F10x_StdPeriph_Driver/src/stm32f10x_flash.c ****       FLASH->CR &= CR_OPTPG_Reset;
1202:../Libraries//STM32F10x_StdPeriph_Driver/src/stm32f10x_flash.c ****     }
1203:../Libraries//STM32F10x_StdPeriph_Driver/src/stm32f10x_flash.c ****   }    
1204:../Libraries//STM32F10x_StdPeriph_Driver/src/stm32f10x_flash.c ****   /* Return the Option Byte program Status */
1205:../Libraries//STM32F10x_StdPeriph_Driver/src/stm32f10x_flash.c ****   return status;
1206:../Libraries//STM32F10x_StdPeriph_Driver/src/stm32f10x_flash.c **** }
1207:../Libraries//STM32F10x_StdPeriph_Driver/src/stm32f10x_flash.c **** #endif /* STM32F10X_XL */
1208:../Libraries//STM32F10x_StdPeriph_Driver/src/stm32f10x_flash.c **** 
1209:../Libraries//STM32F10x_StdPeriph_Driver/src/stm32f10x_flash.c **** /**
1210:../Libraries//STM32F10x_StdPeriph_Driver/src/stm32f10x_flash.c ****   * @brief  Returns the FLASH User Option Bytes values.
1211:../Libraries//STM32F10x_StdPeriph_Driver/src/stm32f10x_flash.c ****   * @note   This function can be used for all STM32F10x devices.
1212:../Libraries//STM32F10x_StdPeriph_Driver/src/stm32f10x_flash.c ****   * @param  None
1213:../Libraries//STM32F10x_StdPeriph_Driver/src/stm32f10x_flash.c ****   * @retval The FLASH User Option Bytes values:IWDG_SW(Bit0), RST_STOP(Bit1)
1214:../Libraries//STM32F10x_StdPeriph_Driver/src/stm32f10x_flash.c ****   *         and RST_STDBY(Bit2).
1215:../Libraries//STM32F10x_StdPeriph_Driver/src/stm32f10x_flash.c ****   */
1216:../Libraries//STM32F10x_StdPeriph_Driver/src/stm32f10x_flash.c **** uint32_t FLASH_GetUserOptionByte(void)
1217:../Libraries//STM32F10x_StdPeriph_Driver/src/stm32f10x_flash.c **** {
 232              		.loc 1 1217 0
 233              		@ args = 0, pretend = 0, frame = 0
 234              		@ frame_needed = 0, uses_anonymous_args = 0
 235              		@ link register save eliminated.
1218:../Libraries//STM32F10x_StdPeriph_Driver/src/stm32f10x_flash.c ****   /* Return the User Option Byte */
1219:../Libraries//STM32F10x_StdPeriph_Driver/src/stm32f10x_flash.c ****   return (uint32_t)(FLASH->OBR >> 2);
 236              		.loc 1 1219 0
 237 0000 014B     		ldr	r3, .L23
 238 0002 D869     		ldr	r0, [r3, #28]
1220:../Libraries//STM32F10x_StdPeriph_Driver/src/stm32f10x_flash.c **** }
 239              		.loc 1 1220 0
 240 0004 8008     		lsrs	r0, r0, #2
 241 0006 7047     		bx	lr
 242              	.L24:
 243              		.align	2
 244              	.L23:
 245 0008 00200240 		.word	1073881088
 246              	.LFE46:
 248              		.section	.text.FLASH_GetWriteProtectionOptionByte,"ax",%progbits
 249              		.align	1
 250              		.global	FLASH_GetWriteProtectionOptionByte
 251              		.thumb
 252              		.thumb_func
 254              	FLASH_GetWriteProtectionOptionByte:
 255              	.LFB47:
1221:../Libraries//STM32F10x_StdPeriph_Driver/src/stm32f10x_flash.c **** 
1222:../Libraries//STM32F10x_StdPeriph_Driver/src/stm32f10x_flash.c **** /**
1223:../Libraries//STM32F10x_StdPeriph_Driver/src/stm32f10x_flash.c ****   * @brief  Returns the FLASH Write Protection Option Bytes Register value.
1224:../Libraries//STM32F10x_StdPeriph_Driver/src/stm32f10x_flash.c ****   * @note   This function can be used for all STM32F10x devices.
1225:../Libraries//STM32F10x_StdPeriph_Driver/src/stm32f10x_flash.c ****   * @param  None
1226:../Libraries//STM32F10x_StdPeriph_Driver/src/stm32f10x_flash.c ****   * @retval The FLASH Write Protection  Option Bytes Register value
1227:../Libraries//STM32F10x_StdPeriph_Driver/src/stm32f10x_flash.c ****   */
1228:../Libraries//STM32F10x_StdPeriph_Driver/src/stm32f10x_flash.c **** uint32_t FLASH_GetWriteProtectionOptionByte(void)
1229:../Libraries//STM32F10x_StdPeriph_Driver/src/stm32f10x_flash.c **** {
 256              		.loc 1 1229 0
 257              		@ args = 0, pretend = 0, frame = 0
 258              		@ frame_needed = 0, uses_anonymous_args = 0
 259              		@ link register save eliminated.
1230:../Libraries//STM32F10x_StdPeriph_Driver/src/stm32f10x_flash.c ****   /* Return the Flash write protection Register value */
1231:../Libraries//STM32F10x_StdPeriph_Driver/src/stm32f10x_flash.c ****   return (uint32_t)(FLASH->WRPR);
 260              		.loc 1 1231 0
 261 0000 014B     		ldr	r3, .L26
 262 0002 186A     		ldr	r0, [r3, #32]
1232:../Libraries//STM32F10x_StdPeriph_Driver/src/stm32f10x_flash.c **** }
 263              		.loc 1 1232 0
 264 0004 7047     		bx	lr
 265              	.L27:
 266 0006 00BF     		.align	2
 267              	.L26:
 268 0008 00200240 		.word	1073881088
 269              	.LFE47:
 271              		.section	.text.FLASH_GetReadOutProtectionStatus,"ax",%progbits
 272              		.align	1
 273              		.global	FLASH_GetReadOutProtectionStatus
 274              		.thumb
 275              		.thumb_func
 277              	FLASH_GetReadOutProtectionStatus:
 278              	.LFB48:
1233:../Libraries//STM32F10x_StdPeriph_Driver/src/stm32f10x_flash.c **** 
1234:../Libraries//STM32F10x_StdPeriph_Driver/src/stm32f10x_flash.c **** /**
1235:../Libraries//STM32F10x_StdPeriph_Driver/src/stm32f10x_flash.c ****   * @brief  Checks whether the FLASH Read Out Protection Status is set or not.
1236:../Libraries//STM32F10x_StdPeriph_Driver/src/stm32f10x_flash.c ****   * @note   This function can be used for all STM32F10x devices.
1237:../Libraries//STM32F10x_StdPeriph_Driver/src/stm32f10x_flash.c ****   * @param  None
1238:../Libraries//STM32F10x_StdPeriph_Driver/src/stm32f10x_flash.c ****   * @retval FLASH ReadOut Protection Status(SET or RESET)
1239:../Libraries//STM32F10x_StdPeriph_Driver/src/stm32f10x_flash.c ****   */
1240:../Libraries//STM32F10x_StdPeriph_Driver/src/stm32f10x_flash.c **** FlagStatus FLASH_GetReadOutProtectionStatus(void)
1241:../Libraries//STM32F10x_StdPeriph_Driver/src/stm32f10x_flash.c **** {
 279              		.loc 1 1241 0
 280              		@ args = 0, pretend = 0, frame = 0
 281              		@ frame_needed = 0, uses_anonymous_args = 0
 282              		@ link register save eliminated.
 283              	.LVL6:
1242:../Libraries//STM32F10x_StdPeriph_Driver/src/stm32f10x_flash.c ****   FlagStatus readoutstatus = RESET;
1243:../Libraries//STM32F10x_StdPeriph_Driver/src/stm32f10x_flash.c ****   if ((FLASH->OBR & RDPRT_Mask) != (uint32_t)RESET)
 284              		.loc 1 1243 0
 285 0000 024B     		ldr	r3, .L29
 286 0002 D869     		ldr	r0, [r3, #28]
 287              	.LVL7:
1244:../Libraries//STM32F10x_StdPeriph_Driver/src/stm32f10x_flash.c ****   {
1245:../Libraries//STM32F10x_StdPeriph_Driver/src/stm32f10x_flash.c ****     readoutstatus = SET;
1246:../Libraries//STM32F10x_StdPeriph_Driver/src/stm32f10x_flash.c ****   }
1247:../Libraries//STM32F10x_StdPeriph_Driver/src/stm32f10x_flash.c ****   else
1248:../Libraries//STM32F10x_StdPeriph_Driver/src/stm32f10x_flash.c ****   {
1249:../Libraries//STM32F10x_StdPeriph_Driver/src/stm32f10x_flash.c ****     readoutstatus = RESET;
1250:../Libraries//STM32F10x_StdPeriph_Driver/src/stm32f10x_flash.c ****   }
1251:../Libraries//STM32F10x_StdPeriph_Driver/src/stm32f10x_flash.c ****   return readoutstatus;
1252:../Libraries//STM32F10x_StdPeriph_Driver/src/stm32f10x_flash.c **** }
 288              		.loc 1 1252 0
 289 0004 C0F34000 		ubfx	r0, r0, #1, #1
 290              	.LVL8:
 291 0008 7047     		bx	lr
 292              	.L30:
 293 000a 00BF     		.align	2
 294              	.L29:
 295 000c 00200240 		.word	1073881088
 296              	.LFE48:
 298              		.section	.text.FLASH_GetPrefetchBufferStatus,"ax",%progbits
 299              		.align	1
 300              		.global	FLASH_GetPrefetchBufferStatus
 301              		.thumb
 302              		.thumb_func
 304              	FLASH_GetPrefetchBufferStatus:
 305              	.LFB49:
1253:../Libraries//STM32F10x_StdPeriph_Driver/src/stm32f10x_flash.c **** 
1254:../Libraries//STM32F10x_StdPeriph_Driver/src/stm32f10x_flash.c **** /**
1255:../Libraries//STM32F10x_StdPeriph_Driver/src/stm32f10x_flash.c ****   * @brief  Checks whether the FLASH Prefetch Buffer status is set or not.
1256:../Libraries//STM32F10x_StdPeriph_Driver/src/stm32f10x_flash.c ****   * @note   This function can be used for all STM32F10x devices.
1257:../Libraries//STM32F10x_StdPeriph_Driver/src/stm32f10x_flash.c ****   * @param  None
1258:../Libraries//STM32F10x_StdPeriph_Driver/src/stm32f10x_flash.c ****   * @retval FLASH Prefetch Buffer Status (SET or RESET).
1259:../Libraries//STM32F10x_StdPeriph_Driver/src/stm32f10x_flash.c ****   */
1260:../Libraries//STM32F10x_StdPeriph_Driver/src/stm32f10x_flash.c **** FlagStatus FLASH_GetPrefetchBufferStatus(void)
1261:../Libraries//STM32F10x_StdPeriph_Driver/src/stm32f10x_flash.c **** {
 306              		.loc 1 1261 0
 307              		@ args = 0, pretend = 0, frame = 0
 308              		@ frame_needed = 0, uses_anonymous_args = 0
 309              		@ link register save eliminated.
 310              	.LVL9:
1262:../Libraries//STM32F10x_StdPeriph_Driver/src/stm32f10x_flash.c ****   FlagStatus bitstatus = RESET;
1263:../Libraries//STM32F10x_StdPeriph_Driver/src/stm32f10x_flash.c ****   
1264:../Libraries//STM32F10x_StdPeriph_Driver/src/stm32f10x_flash.c ****   if ((FLASH->ACR & ACR_PRFTBS_Mask) != (uint32_t)RESET)
 311              		.loc 1 1264 0
 312 0000 024B     		ldr	r3, .L32
 313 0002 1868     		ldr	r0, [r3, #0]
 314              	.LVL10:
1265:../Libraries//STM32F10x_StdPeriph_Driver/src/stm32f10x_flash.c ****   {
1266:../Libraries//STM32F10x_StdPeriph_Driver/src/stm32f10x_flash.c ****     bitstatus = SET;
1267:../Libraries//STM32F10x_StdPeriph_Driver/src/stm32f10x_flash.c ****   }
1268:../Libraries//STM32F10x_StdPeriph_Driver/src/stm32f10x_flash.c ****   else
1269:../Libraries//STM32F10x_StdPeriph_Driver/src/stm32f10x_flash.c ****   {
1270:../Libraries//STM32F10x_StdPeriph_Driver/src/stm32f10x_flash.c ****     bitstatus = RESET;
1271:../Libraries//STM32F10x_StdPeriph_Driver/src/stm32f10x_flash.c ****   }
1272:../Libraries//STM32F10x_StdPeriph_Driver/src/stm32f10x_flash.c ****   /* Return the new state of FLASH Prefetch Buffer Status (SET or RESET) */
1273:../Libraries//STM32F10x_StdPeriph_Driver/src/stm32f10x_flash.c ****   return bitstatus; 
1274:../Libraries//STM32F10x_StdPeriph_Driver/src/stm32f10x_flash.c **** }
 315              		.loc 1 1274 0
 316 0004 C0F34010 		ubfx	r0, r0, #5, #1
 317              	.LVL11:
 318 0008 7047     		bx	lr
 319              	.L33:
 320 000a 00BF     		.align	2
 321              	.L32:
 322 000c 00200240 		.word	1073881088
 323              	.LFE49:
 325              		.section	.text.FLASH_ITConfig,"ax",%progbits
 326              		.align	1
 327              		.global	FLASH_ITConfig
 328              		.thumb
 329              		.thumb_func
 331              	FLASH_ITConfig:
 332              	.LFB50:
1275:../Libraries//STM32F10x_StdPeriph_Driver/src/stm32f10x_flash.c **** 
1276:../Libraries//STM32F10x_StdPeriph_Driver/src/stm32f10x_flash.c **** /**
1277:../Libraries//STM32F10x_StdPeriph_Driver/src/stm32f10x_flash.c ****   * @brief  Enables or disables the specified FLASH interrupts.
1278:../Libraries//STM32F10x_StdPeriph_Driver/src/stm32f10x_flash.c ****   * @note   This function can be used for all STM32F10x devices.
1279:../Libraries//STM32F10x_StdPeriph_Driver/src/stm32f10x_flash.c ****   *         - For STM32F10X_XL devices, enables or disables the specified FLASH interrupts
1280:../Libraries//STM32F10x_StdPeriph_Driver/src/stm32f10x_flash.c ****               for Bank1 and Bank2.
1281:../Libraries//STM32F10x_StdPeriph_Driver/src/stm32f10x_flash.c ****   *         - For other devices it enables or disables the specified FLASH interrupts for Bank1.
1282:../Libraries//STM32F10x_StdPeriph_Driver/src/stm32f10x_flash.c ****   * @param  FLASH_IT: specifies the FLASH interrupt sources to be enabled or disabled.
1283:../Libraries//STM32F10x_StdPeriph_Driver/src/stm32f10x_flash.c ****   *   This parameter can be any combination of the following values:
1284:../Libraries//STM32F10x_StdPeriph_Driver/src/stm32f10x_flash.c ****   *     @arg FLASH_IT_ERROR: FLASH Error Interrupt
1285:../Libraries//STM32F10x_StdPeriph_Driver/src/stm32f10x_flash.c ****   *     @arg FLASH_IT_EOP: FLASH end of operation Interrupt
1286:../Libraries//STM32F10x_StdPeriph_Driver/src/stm32f10x_flash.c ****   * @param  NewState: new state of the specified Flash interrupts.
1287:../Libraries//STM32F10x_StdPeriph_Driver/src/stm32f10x_flash.c ****   *   This parameter can be: ENABLE or DISABLE.      
1288:../Libraries//STM32F10x_StdPeriph_Driver/src/stm32f10x_flash.c ****   * @retval None 
1289:../Libraries//STM32F10x_StdPeriph_Driver/src/stm32f10x_flash.c ****   */
1290:../Libraries//STM32F10x_StdPeriph_Driver/src/stm32f10x_flash.c **** void FLASH_ITConfig(uint32_t FLASH_IT, FunctionalState NewState)
1291:../Libraries//STM32F10x_StdPeriph_Driver/src/stm32f10x_flash.c **** {
 333              		.loc 1 1291 0
 334              		@ args = 0, pretend = 0, frame = 0
 335              		@ frame_needed = 0, uses_anonymous_args = 0
 336              		@ link register save eliminated.
 337              	.LVL12:
 338 0000 044B     		ldr	r3, .L38
1292:../Libraries//STM32F10x_StdPeriph_Driver/src/stm32f10x_flash.c **** #ifdef STM32F10X_XL
1293:../Libraries//STM32F10x_StdPeriph_Driver/src/stm32f10x_flash.c ****   /* Check the parameters */
1294:../Libraries//STM32F10x_StdPeriph_Driver/src/stm32f10x_flash.c ****   assert_param(IS_FLASH_IT(FLASH_IT)); 
1295:../Libraries//STM32F10x_StdPeriph_Driver/src/stm32f10x_flash.c ****   assert_param(IS_FUNCTIONAL_STATE(NewState));
1296:../Libraries//STM32F10x_StdPeriph_Driver/src/stm32f10x_flash.c **** 
1297:../Libraries//STM32F10x_StdPeriph_Driver/src/stm32f10x_flash.c ****   if((FLASH_IT & 0x80000000) != 0x0)
1298:../Libraries//STM32F10x_StdPeriph_Driver/src/stm32f10x_flash.c ****   {
1299:../Libraries//STM32F10x_StdPeriph_Driver/src/stm32f10x_flash.c ****     if(NewState != DISABLE)
1300:../Libraries//STM32F10x_StdPeriph_Driver/src/stm32f10x_flash.c ****     {
1301:../Libraries//STM32F10x_StdPeriph_Driver/src/stm32f10x_flash.c ****       /* Enable the interrupt sources */
1302:../Libraries//STM32F10x_StdPeriph_Driver/src/stm32f10x_flash.c ****       FLASH->CR2 |= (FLASH_IT & 0x7FFFFFFF);
1303:../Libraries//STM32F10x_StdPeriph_Driver/src/stm32f10x_flash.c ****     }
1304:../Libraries//STM32F10x_StdPeriph_Driver/src/stm32f10x_flash.c ****     else
1305:../Libraries//STM32F10x_StdPeriph_Driver/src/stm32f10x_flash.c ****     {
1306:../Libraries//STM32F10x_StdPeriph_Driver/src/stm32f10x_flash.c ****       /* Disable the interrupt sources */
1307:../Libraries//STM32F10x_StdPeriph_Driver/src/stm32f10x_flash.c ****       FLASH->CR2 &= ~(uint32_t)(FLASH_IT & 0x7FFFFFFF);
1308:../Libraries//STM32F10x_StdPeriph_Driver/src/stm32f10x_flash.c ****     }
1309:../Libraries//STM32F10x_StdPeriph_Driver/src/stm32f10x_flash.c ****   }
1310:../Libraries//STM32F10x_StdPeriph_Driver/src/stm32f10x_flash.c ****   else
1311:../Libraries//STM32F10x_StdPeriph_Driver/src/stm32f10x_flash.c ****   {
1312:../Libraries//STM32F10x_StdPeriph_Driver/src/stm32f10x_flash.c ****     if(NewState != DISABLE)
1313:../Libraries//STM32F10x_StdPeriph_Driver/src/stm32f10x_flash.c ****     {
1314:../Libraries//STM32F10x_StdPeriph_Driver/src/stm32f10x_flash.c ****       /* Enable the interrupt sources */
1315:../Libraries//STM32F10x_StdPeriph_Driver/src/stm32f10x_flash.c ****       FLASH->CR |= FLASH_IT;
1316:../Libraries//STM32F10x_StdPeriph_Driver/src/stm32f10x_flash.c ****     }
1317:../Libraries//STM32F10x_StdPeriph_Driver/src/stm32f10x_flash.c ****     else
1318:../Libraries//STM32F10x_StdPeriph_Driver/src/stm32f10x_flash.c ****     {
1319:../Libraries//STM32F10x_StdPeriph_Driver/src/stm32f10x_flash.c ****       /* Disable the interrupt sources */
1320:../Libraries//STM32F10x_StdPeriph_Driver/src/stm32f10x_flash.c ****       FLASH->CR &= ~(uint32_t)FLASH_IT;
1321:../Libraries//STM32F10x_StdPeriph_Driver/src/stm32f10x_flash.c ****     }
1322:../Libraries//STM32F10x_StdPeriph_Driver/src/stm32f10x_flash.c ****   }
1323:../Libraries//STM32F10x_StdPeriph_Driver/src/stm32f10x_flash.c **** #else
1324:../Libraries//STM32F10x_StdPeriph_Driver/src/stm32f10x_flash.c ****   /* Check the parameters */
1325:../Libraries//STM32F10x_StdPeriph_Driver/src/stm32f10x_flash.c ****   assert_param(IS_FLASH_IT(FLASH_IT)); 
1326:../Libraries//STM32F10x_StdPeriph_Driver/src/stm32f10x_flash.c ****   assert_param(IS_FUNCTIONAL_STATE(NewState));
1327:../Libraries//STM32F10x_StdPeriph_Driver/src/stm32f10x_flash.c **** 
1328:../Libraries//STM32F10x_StdPeriph_Driver/src/stm32f10x_flash.c ****   if(NewState != DISABLE)
 339              		.loc 1 1328 0
 340 0002 11B1     		cbz	r1, .L35
1329:../Libraries//STM32F10x_StdPeriph_Driver/src/stm32f10x_flash.c ****   {
1330:../Libraries//STM32F10x_StdPeriph_Driver/src/stm32f10x_flash.c ****     /* Enable the interrupt sources */
1331:../Libraries//STM32F10x_StdPeriph_Driver/src/stm32f10x_flash.c ****     FLASH->CR |= FLASH_IT;
 341              		.loc 1 1331 0
 342 0004 1A69     		ldr	r2, [r3, #16]
 343 0006 1043     		orrs	r0, r0, r2
 344              	.LVL13:
 345 0008 02E0     		b	.L37
 346              	.LVL14:
 347              	.L35:
1332:../Libraries//STM32F10x_StdPeriph_Driver/src/stm32f10x_flash.c ****   }
1333:../Libraries//STM32F10x_StdPeriph_Driver/src/stm32f10x_flash.c ****   else
1334:../Libraries//STM32F10x_StdPeriph_Driver/src/stm32f10x_flash.c ****   {
1335:../Libraries//STM32F10x_StdPeriph_Driver/src/stm32f10x_flash.c ****     /* Disable the interrupt sources */
1336:../Libraries//STM32F10x_StdPeriph_Driver/src/stm32f10x_flash.c ****     FLASH->CR &= ~(uint32_t)FLASH_IT;
 348              		.loc 1 1336 0
 349 000a 1A69     		ldr	r2, [r3, #16]
 350 000c 22EA0000 		bic	r0, r2, r0
 351              	.LVL15:
 352              	.L37:
 353 0010 1861     		str	r0, [r3, #16]
 354 0012 7047     		bx	lr
 355              	.L39:
 356              		.align	2
 357              	.L38:
 358 0014 00200240 		.word	1073881088
 359              	.LFE50:
 361              		.section	.text.FLASH_GetFlagStatus,"ax",%progbits
 362              		.align	1
 363              		.global	FLASH_GetFlagStatus
 364              		.thumb
 365              		.thumb_func
 367              	FLASH_GetFlagStatus:
 368              	.LFB51:
1337:../Libraries//STM32F10x_StdPeriph_Driver/src/stm32f10x_flash.c ****   }
1338:../Libraries//STM32F10x_StdPeriph_Driver/src/stm32f10x_flash.c **** #endif /* STM32F10X_XL */
1339:../Libraries//STM32F10x_StdPeriph_Driver/src/stm32f10x_flash.c **** }
1340:../Libraries//STM32F10x_StdPeriph_Driver/src/stm32f10x_flash.c **** 
1341:../Libraries//STM32F10x_StdPeriph_Driver/src/stm32f10x_flash.c **** /**
1342:../Libraries//STM32F10x_StdPeriph_Driver/src/stm32f10x_flash.c ****   * @brief  Checks whether the specified FLASH flag is set or not.
1343:../Libraries//STM32F10x_StdPeriph_Driver/src/stm32f10x_flash.c ****   * @note   This function can be used for all STM32F10x devices.
1344:../Libraries//STM32F10x_StdPeriph_Driver/src/stm32f10x_flash.c ****   *         - For STM32F10X_XL devices, this function checks whether the specified 
1345:../Libraries//STM32F10x_StdPeriph_Driver/src/stm32f10x_flash.c ****   *           Bank1 or Bank2 flag is set or not.
1346:../Libraries//STM32F10x_StdPeriph_Driver/src/stm32f10x_flash.c ****   *         - For other devices, it checks whether the specified Bank1 flag is 
1347:../Libraries//STM32F10x_StdPeriph_Driver/src/stm32f10x_flash.c ****   *           set or not.
1348:../Libraries//STM32F10x_StdPeriph_Driver/src/stm32f10x_flash.c ****   * @param  FLASH_FLAG: specifies the FLASH flag to check.
1349:../Libraries//STM32F10x_StdPeriph_Driver/src/stm32f10x_flash.c ****   *   This parameter can be one of the following values:
1350:../Libraries//STM32F10x_StdPeriph_Driver/src/stm32f10x_flash.c ****   *     @arg FLASH_FLAG_BSY: FLASH Busy flag           
1351:../Libraries//STM32F10x_StdPeriph_Driver/src/stm32f10x_flash.c ****   *     @arg FLASH_FLAG_PGERR: FLASH Program error flag       
1352:../Libraries//STM32F10x_StdPeriph_Driver/src/stm32f10x_flash.c ****   *     @arg FLASH_FLAG_WRPRTERR: FLASH Write protected error flag      
1353:../Libraries//STM32F10x_StdPeriph_Driver/src/stm32f10x_flash.c ****   *     @arg FLASH_FLAG_EOP: FLASH End of Operation flag           
1354:../Libraries//STM32F10x_StdPeriph_Driver/src/stm32f10x_flash.c ****   *     @arg FLASH_FLAG_OPTERR:  FLASH Option Byte error flag     
1355:../Libraries//STM32F10x_StdPeriph_Driver/src/stm32f10x_flash.c ****   * @retval The new state of FLASH_FLAG (SET or RESET).
1356:../Libraries//STM32F10x_StdPeriph_Driver/src/stm32f10x_flash.c ****   */
1357:../Libraries//STM32F10x_StdPeriph_Driver/src/stm32f10x_flash.c **** FlagStatus FLASH_GetFlagStatus(uint32_t FLASH_FLAG)
1358:../Libraries//STM32F10x_StdPeriph_Driver/src/stm32f10x_flash.c **** {
 369              		.loc 1 1358 0
 370              		@ args = 0, pretend = 0, frame = 0
 371              		@ frame_needed = 0, uses_anonymous_args = 0
 372              		@ link register save eliminated.
 373              	.LVL16:
1359:../Libraries//STM32F10x_StdPeriph_Driver/src/stm32f10x_flash.c ****   FlagStatus bitstatus = RESET;
1360:../Libraries//STM32F10x_StdPeriph_Driver/src/stm32f10x_flash.c **** 
1361:../Libraries//STM32F10x_StdPeriph_Driver/src/stm32f10x_flash.c **** #ifdef STM32F10X_XL
1362:../Libraries//STM32F10x_StdPeriph_Driver/src/stm32f10x_flash.c ****   /* Check the parameters */
1363:../Libraries//STM32F10x_StdPeriph_Driver/src/stm32f10x_flash.c ****   assert_param(IS_FLASH_GET_FLAG(FLASH_FLAG)) ;
1364:../Libraries//STM32F10x_StdPeriph_Driver/src/stm32f10x_flash.c ****   if(FLASH_FLAG == FLASH_FLAG_OPTERR) 
1365:../Libraries//STM32F10x_StdPeriph_Driver/src/stm32f10x_flash.c ****   {
1366:../Libraries//STM32F10x_StdPeriph_Driver/src/stm32f10x_flash.c ****     if((FLASH->OBR & FLASH_FLAG_OPTERR) != (uint32_t)RESET)
1367:../Libraries//STM32F10x_StdPeriph_Driver/src/stm32f10x_flash.c ****     {
1368:../Libraries//STM32F10x_StdPeriph_Driver/src/stm32f10x_flash.c ****       bitstatus = SET;
1369:../Libraries//STM32F10x_StdPeriph_Driver/src/stm32f10x_flash.c ****     }
1370:../Libraries//STM32F10x_StdPeriph_Driver/src/stm32f10x_flash.c ****     else
1371:../Libraries//STM32F10x_StdPeriph_Driver/src/stm32f10x_flash.c ****     {
1372:../Libraries//STM32F10x_StdPeriph_Driver/src/stm32f10x_flash.c ****       bitstatus = RESET;
1373:../Libraries//STM32F10x_StdPeriph_Driver/src/stm32f10x_flash.c ****     }
1374:../Libraries//STM32F10x_StdPeriph_Driver/src/stm32f10x_flash.c ****   }
1375:../Libraries//STM32F10x_StdPeriph_Driver/src/stm32f10x_flash.c ****   else
1376:../Libraries//STM32F10x_StdPeriph_Driver/src/stm32f10x_flash.c ****   {
1377:../Libraries//STM32F10x_StdPeriph_Driver/src/stm32f10x_flash.c ****     if((FLASH_FLAG & 0x80000000) != 0x0)
1378:../Libraries//STM32F10x_StdPeriph_Driver/src/stm32f10x_flash.c ****     {
1379:../Libraries//STM32F10x_StdPeriph_Driver/src/stm32f10x_flash.c ****       if((FLASH->SR2 & FLASH_FLAG) != (uint32_t)RESET)
1380:../Libraries//STM32F10x_StdPeriph_Driver/src/stm32f10x_flash.c ****       {
1381:../Libraries//STM32F10x_StdPeriph_Driver/src/stm32f10x_flash.c ****         bitstatus = SET;
1382:../Libraries//STM32F10x_StdPeriph_Driver/src/stm32f10x_flash.c ****       }
1383:../Libraries//STM32F10x_StdPeriph_Driver/src/stm32f10x_flash.c ****       else
1384:../Libraries//STM32F10x_StdPeriph_Driver/src/stm32f10x_flash.c ****       {
1385:../Libraries//STM32F10x_StdPeriph_Driver/src/stm32f10x_flash.c ****         bitstatus = RESET;
1386:../Libraries//STM32F10x_StdPeriph_Driver/src/stm32f10x_flash.c ****       }
1387:../Libraries//STM32F10x_StdPeriph_Driver/src/stm32f10x_flash.c ****     }
1388:../Libraries//STM32F10x_StdPeriph_Driver/src/stm32f10x_flash.c ****     else
1389:../Libraries//STM32F10x_StdPeriph_Driver/src/stm32f10x_flash.c ****     {
1390:../Libraries//STM32F10x_StdPeriph_Driver/src/stm32f10x_flash.c ****       if((FLASH->SR & FLASH_FLAG) != (uint32_t)RESET)
1391:../Libraries//STM32F10x_StdPeriph_Driver/src/stm32f10x_flash.c ****       {
1392:../Libraries//STM32F10x_StdPeriph_Driver/src/stm32f10x_flash.c ****         bitstatus = SET;
1393:../Libraries//STM32F10x_StdPeriph_Driver/src/stm32f10x_flash.c ****       }
1394:../Libraries//STM32F10x_StdPeriph_Driver/src/stm32f10x_flash.c ****       else
1395:../Libraries//STM32F10x_StdPeriph_Driver/src/stm32f10x_flash.c ****       {
1396:../Libraries//STM32F10x_StdPeriph_Driver/src/stm32f10x_flash.c ****         bitstatus = RESET;
1397:../Libraries//STM32F10x_StdPeriph_Driver/src/stm32f10x_flash.c ****       }
1398:../Libraries//STM32F10x_StdPeriph_Driver/src/stm32f10x_flash.c ****     }
1399:../Libraries//STM32F10x_StdPeriph_Driver/src/stm32f10x_flash.c ****   }
1400:../Libraries//STM32F10x_StdPeriph_Driver/src/stm32f10x_flash.c **** #else
1401:../Libraries//STM32F10x_StdPeriph_Driver/src/stm32f10x_flash.c ****   /* Check the parameters */
1402:../Libraries//STM32F10x_StdPeriph_Driver/src/stm32f10x_flash.c ****   assert_param(IS_FLASH_GET_FLAG(FLASH_FLAG)) ;
1403:../Libraries//STM32F10x_StdPeriph_Driver/src/stm32f10x_flash.c ****   if(FLASH_FLAG == FLASH_FLAG_OPTERR) 
 374              		.loc 1 1403 0
 375 0000 0128     		cmp	r0, #1
 376 0002 064B     		ldr	r3, .L43
 377 0004 03D1     		bne	.L41
1404:../Libraries//STM32F10x_StdPeriph_Driver/src/stm32f10x_flash.c ****   {
1405:../Libraries//STM32F10x_StdPeriph_Driver/src/stm32f10x_flash.c ****     if((FLASH->OBR & FLASH_FLAG_OPTERR) != (uint32_t)RESET)
 378              		.loc 1 1405 0
 379 0006 D869     		ldr	r0, [r3, #28]
 380              	.LVL17:
1406:../Libraries//STM32F10x_StdPeriph_Driver/src/stm32f10x_flash.c ****     {
1407:../Libraries//STM32F10x_StdPeriph_Driver/src/stm32f10x_flash.c ****       bitstatus = SET;
1408:../Libraries//STM32F10x_StdPeriph_Driver/src/stm32f10x_flash.c ****     }
1409:../Libraries//STM32F10x_StdPeriph_Driver/src/stm32f10x_flash.c ****     else
1410:../Libraries//STM32F10x_StdPeriph_Driver/src/stm32f10x_flash.c ****     {
1411:../Libraries//STM32F10x_StdPeriph_Driver/src/stm32f10x_flash.c ****       bitstatus = RESET;
 381              		.loc 1 1411 0
 382 0008 00F00100 		and	r0, r0, #1
 383 000c 7047     		bx	lr
 384              	.LVL18:
 385              	.L41:
1412:../Libraries//STM32F10x_StdPeriph_Driver/src/stm32f10x_flash.c ****     }
1413:../Libraries//STM32F10x_StdPeriph_Driver/src/stm32f10x_flash.c ****   }
1414:../Libraries//STM32F10x_StdPeriph_Driver/src/stm32f10x_flash.c ****   else
1415:../Libraries//STM32F10x_StdPeriph_Driver/src/stm32f10x_flash.c ****   {
1416:../Libraries//STM32F10x_StdPeriph_Driver/src/stm32f10x_flash.c ****    if((FLASH->SR & FLASH_FLAG) != (uint32_t)RESET)
 386              		.loc 1 1416 0
 387 000e DB68     		ldr	r3, [r3, #12]
1411:../Libraries//STM32F10x_StdPeriph_Driver/src/stm32f10x_flash.c ****       bitstatus = RESET;
 388              		.loc 1 1411 0
 389 0010 1842     		tst	r0, r3
 390 0012 0CBF     		ite	eq
 391 0014 0020     		moveq	r0, #0
 392 0016 0120     		movne	r0, #1
 393              	.LVL19:
1417:../Libraries//STM32F10x_StdPeriph_Driver/src/stm32f10x_flash.c ****     {
1418:../Libraries//STM32F10x_StdPeriph_Driver/src/stm32f10x_flash.c ****       bitstatus = SET;
1419:../Libraries//STM32F10x_StdPeriph_Driver/src/stm32f10x_flash.c ****     }
1420:../Libraries//STM32F10x_StdPeriph_Driver/src/stm32f10x_flash.c ****     else
1421:../Libraries//STM32F10x_StdPeriph_Driver/src/stm32f10x_flash.c ****     {
1422:../Libraries//STM32F10x_StdPeriph_Driver/src/stm32f10x_flash.c ****       bitstatus = RESET;
1423:../Libraries//STM32F10x_StdPeriph_Driver/src/stm32f10x_flash.c ****     }
1424:../Libraries//STM32F10x_StdPeriph_Driver/src/stm32f10x_flash.c ****   }
1425:../Libraries//STM32F10x_StdPeriph_Driver/src/stm32f10x_flash.c **** #endif /* STM32F10X_XL */
1426:../Libraries//STM32F10x_StdPeriph_Driver/src/stm32f10x_flash.c **** 
1427:../Libraries//STM32F10x_StdPeriph_Driver/src/stm32f10x_flash.c ****   /* Return the new state of FLASH_FLAG (SET or RESET) */
1428:../Libraries//STM32F10x_StdPeriph_Driver/src/stm32f10x_flash.c ****   return bitstatus;
1429:../Libraries//STM32F10x_StdPeriph_Driver/src/stm32f10x_flash.c **** }
 394              		.loc 1 1429 0
 395 0018 7047     		bx	lr
 396              	.L44:
 397 001a 00BF     		.align	2
 398              	.L43:
 399 001c 00200240 		.word	1073881088
 400              	.LFE51:
 402              		.section	.text.FLASH_ClearFlag,"ax",%progbits
 403              		.align	1
 404              		.global	FLASH_ClearFlag
 405              		.thumb
 406              		.thumb_func
 408              	FLASH_ClearFlag:
 409              	.LFB52:
1430:../Libraries//STM32F10x_StdPeriph_Driver/src/stm32f10x_flash.c **** 
1431:../Libraries//STM32F10x_StdPeriph_Driver/src/stm32f10x_flash.c **** /**
1432:../Libraries//STM32F10x_StdPeriph_Driver/src/stm32f10x_flash.c ****   * @brief  Clears the FLASH's pending flags.
1433:../Libraries//STM32F10x_StdPeriph_Driver/src/stm32f10x_flash.c ****   * @note   This function can be used for all STM32F10x devices.
1434:../Libraries//STM32F10x_StdPeriph_Driver/src/stm32f10x_flash.c ****   *         - For STM32F10X_XL devices, this function clears Bank1 or Bank2’s pending flags
1435:../Libraries//STM32F10x_StdPeriph_Driver/src/stm32f10x_flash.c ****   *         - For other devices, it clears Bank1’s pending flags.
1436:../Libraries//STM32F10x_StdPeriph_Driver/src/stm32f10x_flash.c ****   * @param  FLASH_FLAG: specifies the FLASH flags to clear.
1437:../Libraries//STM32F10x_StdPeriph_Driver/src/stm32f10x_flash.c ****   *   This parameter can be any combination of the following values:         
1438:../Libraries//STM32F10x_StdPeriph_Driver/src/stm32f10x_flash.c ****   *     @arg FLASH_FLAG_PGERR: FLASH Program error flag       
1439:../Libraries//STM32F10x_StdPeriph_Driver/src/stm32f10x_flash.c ****   *     @arg FLASH_FLAG_WRPRTERR: FLASH Write protected error flag      
1440:../Libraries//STM32F10x_StdPeriph_Driver/src/stm32f10x_flash.c ****   *     @arg FLASH_FLAG_EOP: FLASH End of Operation flag           
1441:../Libraries//STM32F10x_StdPeriph_Driver/src/stm32f10x_flash.c ****   * @retval None
1442:../Libraries//STM32F10x_StdPeriph_Driver/src/stm32f10x_flash.c ****   */
1443:../Libraries//STM32F10x_StdPeriph_Driver/src/stm32f10x_flash.c **** void FLASH_ClearFlag(uint32_t FLASH_FLAG)
1444:../Libraries//STM32F10x_StdPeriph_Driver/src/stm32f10x_flash.c **** {
 410              		.loc 1 1444 0
 411              		@ args = 0, pretend = 0, frame = 0
 412              		@ frame_needed = 0, uses_anonymous_args = 0
 413              		@ link register save eliminated.
 414              	.LVL20:
1445:../Libraries//STM32F10x_StdPeriph_Driver/src/stm32f10x_flash.c **** #ifdef STM32F10X_XL
1446:../Libraries//STM32F10x_StdPeriph_Driver/src/stm32f10x_flash.c ****   /* Check the parameters */
1447:../Libraries//STM32F10x_StdPeriph_Driver/src/stm32f10x_flash.c ****   assert_param(IS_FLASH_CLEAR_FLAG(FLASH_FLAG)) ;
1448:../Libraries//STM32F10x_StdPeriph_Driver/src/stm32f10x_flash.c **** 
1449:../Libraries//STM32F10x_StdPeriph_Driver/src/stm32f10x_flash.c ****   if((FLASH_FLAG & 0x80000000) != 0x0)
1450:../Libraries//STM32F10x_StdPeriph_Driver/src/stm32f10x_flash.c ****   {
1451:../Libraries//STM32F10x_StdPeriph_Driver/src/stm32f10x_flash.c ****     /* Clear the flags */
1452:../Libraries//STM32F10x_StdPeriph_Driver/src/stm32f10x_flash.c ****     FLASH->SR2 = FLASH_FLAG;
1453:../Libraries//STM32F10x_StdPeriph_Driver/src/stm32f10x_flash.c ****   }
1454:../Libraries//STM32F10x_StdPeriph_Driver/src/stm32f10x_flash.c ****   else
1455:../Libraries//STM32F10x_StdPeriph_Driver/src/stm32f10x_flash.c ****   {
1456:../Libraries//STM32F10x_StdPeriph_Driver/src/stm32f10x_flash.c ****     /* Clear the flags */
1457:../Libraries//STM32F10x_StdPeriph_Driver/src/stm32f10x_flash.c ****     FLASH->SR = FLASH_FLAG;
1458:../Libraries//STM32F10x_StdPeriph_Driver/src/stm32f10x_flash.c ****   }  
1459:../Libraries//STM32F10x_StdPeriph_Driver/src/stm32f10x_flash.c **** 
1460:../Libraries//STM32F10x_StdPeriph_Driver/src/stm32f10x_flash.c **** #else
1461:../Libraries//STM32F10x_StdPeriph_Driver/src/stm32f10x_flash.c ****   /* Check the parameters */
1462:../Libraries//STM32F10x_StdPeriph_Driver/src/stm32f10x_flash.c ****   assert_param(IS_FLASH_CLEAR_FLAG(FLASH_FLAG)) ;
1463:../Libraries//STM32F10x_StdPeriph_Driver/src/stm32f10x_flash.c ****   
1464:../Libraries//STM32F10x_StdPeriph_Driver/src/stm32f10x_flash.c ****   /* Clear the flags */
1465:../Libraries//STM32F10x_StdPeriph_Driver/src/stm32f10x_flash.c ****   FLASH->SR = FLASH_FLAG;
 415              		.loc 1 1465 0
 416 0000 014B     		ldr	r3, .L46
 417 0002 D860     		str	r0, [r3, #12]
1466:../Libraries//STM32F10x_StdPeriph_Driver/src/stm32f10x_flash.c **** #endif /* STM32F10X_XL */
1467:../Libraries//STM32F10x_StdPeriph_Driver/src/stm32f10x_flash.c **** }
 418              		.loc 1 1467 0
 419 0004 7047     		bx	lr
 420              	.L47:
 421 0006 00BF     		.align	2
 422              	.L46:
 423 0008 00200240 		.word	1073881088
 424              	.LFE52:
 426              		.section	.text.FLASH_GetStatus,"ax",%progbits
 427              		.align	1
 428              		.global	FLASH_GetStatus
 429              		.thumb
 430              		.thumb_func
 432              	FLASH_GetStatus:
 433              	.LFB53:
1468:../Libraries//STM32F10x_StdPeriph_Driver/src/stm32f10x_flash.c **** 
1469:../Libraries//STM32F10x_StdPeriph_Driver/src/stm32f10x_flash.c **** /**
1470:../Libraries//STM32F10x_StdPeriph_Driver/src/stm32f10x_flash.c ****   * @brief  Returns the FLASH Status.
1471:../Libraries//STM32F10x_StdPeriph_Driver/src/stm32f10x_flash.c ****   * @note   This function can be used for all STM32F10x devices, it is equivalent
1472:../Libraries//STM32F10x_StdPeriph_Driver/src/stm32f10x_flash.c ****   *         to FLASH_GetBank1Status function.
1473:../Libraries//STM32F10x_StdPeriph_Driver/src/stm32f10x_flash.c ****   * @param  None
1474:../Libraries//STM32F10x_StdPeriph_Driver/src/stm32f10x_flash.c ****   * @retval FLASH Status: The returned value can be: FLASH_BUSY, FLASH_ERROR_PG,
1475:../Libraries//STM32F10x_StdPeriph_Driver/src/stm32f10x_flash.c ****   *         FLASH_ERROR_WRP or FLASH_COMPLETE
1476:../Libraries//STM32F10x_StdPeriph_Driver/src/stm32f10x_flash.c ****   */
1477:../Libraries//STM32F10x_StdPeriph_Driver/src/stm32f10x_flash.c **** FLASH_Status FLASH_GetStatus(void)
1478:../Libraries//STM32F10x_StdPeriph_Driver/src/stm32f10x_flash.c **** {
 434              		.loc 1 1478 0
 435              		@ args = 0, pretend = 0, frame = 0
 436              		@ frame_needed = 0, uses_anonymous_args = 0
 437              		@ link register save eliminated.
 438              	.LVL21:
1479:../Libraries//STM32F10x_StdPeriph_Driver/src/stm32f10x_flash.c ****   FLASH_Status flashstatus = FLASH_COMPLETE;
1480:../Libraries//STM32F10x_StdPeriph_Driver/src/stm32f10x_flash.c ****   
1481:../Libraries//STM32F10x_StdPeriph_Driver/src/stm32f10x_flash.c ****   if((FLASH->SR & FLASH_FLAG_BSY) == FLASH_FLAG_BSY) 
 439              		.loc 1 1481 0
 440 0000 0A4B     		ldr	r3, .L53
 441 0002 DA68     		ldr	r2, [r3, #12]
 442 0004 12F0010F 		tst	r2, #1
 443 0008 0BD1     		bne	.L50
1482:../Libraries//STM32F10x_StdPeriph_Driver/src/stm32f10x_flash.c ****   {
1483:../Libraries//STM32F10x_StdPeriph_Driver/src/stm32f10x_flash.c ****     flashstatus = FLASH_BUSY;
1484:../Libraries//STM32F10x_StdPeriph_Driver/src/stm32f10x_flash.c ****   }
1485:../Libraries//STM32F10x_StdPeriph_Driver/src/stm32f10x_flash.c ****   else 
1486:../Libraries//STM32F10x_StdPeriph_Driver/src/stm32f10x_flash.c ****   {  
1487:../Libraries//STM32F10x_StdPeriph_Driver/src/stm32f10x_flash.c ****     if((FLASH->SR & FLASH_FLAG_PGERR) != 0)
 444              		.loc 1 1487 0
 445 000a DA68     		ldr	r2, [r3, #12]
 446 000c 12F0040F 		tst	r2, #4
 447 0010 09D1     		bne	.L51
1488:../Libraries//STM32F10x_StdPeriph_Driver/src/stm32f10x_flash.c ****     { 
1489:../Libraries//STM32F10x_StdPeriph_Driver/src/stm32f10x_flash.c ****       flashstatus = FLASH_ERROR_PG;
1490:../Libraries//STM32F10x_StdPeriph_Driver/src/stm32f10x_flash.c ****     }
1491:../Libraries//STM32F10x_StdPeriph_Driver/src/stm32f10x_flash.c ****     else 
1492:../Libraries//STM32F10x_StdPeriph_Driver/src/stm32f10x_flash.c ****     {
1493:../Libraries//STM32F10x_StdPeriph_Driver/src/stm32f10x_flash.c ****       if((FLASH->SR & FLASH_FLAG_WRPRTERR) != 0 )
 448              		.loc 1 1493 0
 449 0012 D868     		ldr	r0, [r3, #12]
 450 0014 00F01000 		and	r0, r0, #16
1494:../Libraries//STM32F10x_StdPeriph_Driver/src/stm32f10x_flash.c ****       {
1495:../Libraries//STM32F10x_StdPeriph_Driver/src/stm32f10x_flash.c ****         flashstatus = FLASH_ERROR_WRP;
 451              		.loc 1 1495 0
 452 0018 0028     		cmp	r0, #0
 453 001a 0CBF     		ite	eq
 454 001c 0420     		moveq	r0, #4
 455 001e 0320     		movne	r0, #3
 456 0020 7047     		bx	lr
 457              	.L50:
1483:../Libraries//STM32F10x_StdPeriph_Driver/src/stm32f10x_flash.c ****     flashstatus = FLASH_BUSY;
 458              		.loc 1 1483 0
 459 0022 0120     		movs	r0, #1
 460 0024 7047     		bx	lr
 461              	.L51:
1489:../Libraries//STM32F10x_StdPeriph_Driver/src/stm32f10x_flash.c ****       flashstatus = FLASH_ERROR_PG;
 462              		.loc 1 1489 0
 463 0026 0220     		movs	r0, #2
 464              	.LVL22:
1496:../Libraries//STM32F10x_StdPeriph_Driver/src/stm32f10x_flash.c ****       }
1497:../Libraries//STM32F10x_StdPeriph_Driver/src/stm32f10x_flash.c ****       else
1498:../Libraries//STM32F10x_StdPeriph_Driver/src/stm32f10x_flash.c ****       {
1499:../Libraries//STM32F10x_StdPeriph_Driver/src/stm32f10x_flash.c ****         flashstatus = FLASH_COMPLETE;
1500:../Libraries//STM32F10x_StdPeriph_Driver/src/stm32f10x_flash.c ****       }
1501:../Libraries//STM32F10x_StdPeriph_Driver/src/stm32f10x_flash.c ****     }
1502:../Libraries//STM32F10x_StdPeriph_Driver/src/stm32f10x_flash.c ****   }
1503:../Libraries//STM32F10x_StdPeriph_Driver/src/stm32f10x_flash.c ****   /* Return the Flash Status */
1504:../Libraries//STM32F10x_StdPeriph_Driver/src/stm32f10x_flash.c ****   return flashstatus;
1505:../Libraries//STM32F10x_StdPeriph_Driver/src/stm32f10x_flash.c **** }
 465              		.loc 1 1505 0
 466 0028 7047     		bx	lr
 467              	.L54:
 468 002a 00BF     		.align	2
 469              	.L53:
 470 002c 00200240 		.word	1073881088
 471              	.LFE53:
 473              		.section	.text.FLASH_GetBank1Status,"ax",%progbits
 474              		.align	1
 475              		.global	FLASH_GetBank1Status
 476              		.thumb
 477              		.thumb_func
 479              	FLASH_GetBank1Status:
 480              	.LFB54:
1506:../Libraries//STM32F10x_StdPeriph_Driver/src/stm32f10x_flash.c **** 
1507:../Libraries//STM32F10x_StdPeriph_Driver/src/stm32f10x_flash.c **** /**
1508:../Libraries//STM32F10x_StdPeriph_Driver/src/stm32f10x_flash.c ****   * @brief  Returns the FLASH Bank1 Status.
1509:../Libraries//STM32F10x_StdPeriph_Driver/src/stm32f10x_flash.c ****   * @note   This function can be used for all STM32F10x devices, it is equivalent
1510:../Libraries//STM32F10x_StdPeriph_Driver/src/stm32f10x_flash.c ****   *         to FLASH_GetStatus function.
1511:../Libraries//STM32F10x_StdPeriph_Driver/src/stm32f10x_flash.c ****   * @param  None
1512:../Libraries//STM32F10x_StdPeriph_Driver/src/stm32f10x_flash.c ****   * @retval FLASH Status: The returned value can be: FLASH_BUSY, FLASH_ERROR_PG,
1513:../Libraries//STM32F10x_StdPeriph_Driver/src/stm32f10x_flash.c ****   *         FLASH_ERROR_WRP or FLASH_COMPLETE
1514:../Libraries//STM32F10x_StdPeriph_Driver/src/stm32f10x_flash.c ****   */
1515:../Libraries//STM32F10x_StdPeriph_Driver/src/stm32f10x_flash.c **** FLASH_Status FLASH_GetBank1Status(void)
1516:../Libraries//STM32F10x_StdPeriph_Driver/src/stm32f10x_flash.c **** {
 481              		.loc 1 1516 0
 482              		@ args = 0, pretend = 0, frame = 0
 483              		@ frame_needed = 0, uses_anonymous_args = 0
 484              		@ link register save eliminated.
 485              	.LVL23:
1517:../Libraries//STM32F10x_StdPeriph_Driver/src/stm32f10x_flash.c ****   FLASH_Status flashstatus = FLASH_COMPLETE;
1518:../Libraries//STM32F10x_StdPeriph_Driver/src/stm32f10x_flash.c ****   
1519:../Libraries//STM32F10x_StdPeriph_Driver/src/stm32f10x_flash.c ****   if((FLASH->SR & FLASH_FLAG_BANK1_BSY) == FLASH_FLAG_BSY) 
 486              		.loc 1 1519 0
 487 0000 0A4B     		ldr	r3, .L60
 488 0002 DA68     		ldr	r2, [r3, #12]
 489 0004 12F0010F 		tst	r2, #1
 490 0008 0BD1     		bne	.L57
1520:../Libraries//STM32F10x_StdPeriph_Driver/src/stm32f10x_flash.c ****   {
1521:../Libraries//STM32F10x_StdPeriph_Driver/src/stm32f10x_flash.c ****     flashstatus = FLASH_BUSY;
1522:../Libraries//STM32F10x_StdPeriph_Driver/src/stm32f10x_flash.c ****   }
1523:../Libraries//STM32F10x_StdPeriph_Driver/src/stm32f10x_flash.c ****   else 
1524:../Libraries//STM32F10x_StdPeriph_Driver/src/stm32f10x_flash.c ****   {  
1525:../Libraries//STM32F10x_StdPeriph_Driver/src/stm32f10x_flash.c ****     if((FLASH->SR & FLASH_FLAG_BANK1_PGERR) != 0)
 491              		.loc 1 1525 0
 492 000a DA68     		ldr	r2, [r3, #12]
 493 000c 12F0040F 		tst	r2, #4
 494 0010 09D1     		bne	.L58
1526:../Libraries//STM32F10x_StdPeriph_Driver/src/stm32f10x_flash.c ****     { 
1527:../Libraries//STM32F10x_StdPeriph_Driver/src/stm32f10x_flash.c ****       flashstatus = FLASH_ERROR_PG;
1528:../Libraries//STM32F10x_StdPeriph_Driver/src/stm32f10x_flash.c ****     }
1529:../Libraries//STM32F10x_StdPeriph_Driver/src/stm32f10x_flash.c ****     else 
1530:../Libraries//STM32F10x_StdPeriph_Driver/src/stm32f10x_flash.c ****     {
1531:../Libraries//STM32F10x_StdPeriph_Driver/src/stm32f10x_flash.c ****       if((FLASH->SR & FLASH_FLAG_BANK1_WRPRTERR) != 0 )
 495              		.loc 1 1531 0
 496 0012 D868     		ldr	r0, [r3, #12]
 497 0014 00F01000 		and	r0, r0, #16
1532:../Libraries//STM32F10x_StdPeriph_Driver/src/stm32f10x_flash.c ****       {
1533:../Libraries//STM32F10x_StdPeriph_Driver/src/stm32f10x_flash.c ****         flashstatus = FLASH_ERROR_WRP;
 498              		.loc 1 1533 0
 499 0018 0028     		cmp	r0, #0
 500 001a 0CBF     		ite	eq
 501 001c 0420     		moveq	r0, #4
 502 001e 0320     		movne	r0, #3
 503 0020 7047     		bx	lr
 504              	.L57:
1521:../Libraries//STM32F10x_StdPeriph_Driver/src/stm32f10x_flash.c ****     flashstatus = FLASH_BUSY;
 505              		.loc 1 1521 0
 506 0022 0120     		movs	r0, #1
 507 0024 7047     		bx	lr
 508              	.L58:
1527:../Libraries//STM32F10x_StdPeriph_Driver/src/stm32f10x_flash.c ****       flashstatus = FLASH_ERROR_PG;
 509              		.loc 1 1527 0
 510 0026 0220     		movs	r0, #2
 511              	.LVL24:
1534:../Libraries//STM32F10x_StdPeriph_Driver/src/stm32f10x_flash.c ****       }
1535:../Libraries//STM32F10x_StdPeriph_Driver/src/stm32f10x_flash.c ****       else
1536:../Libraries//STM32F10x_StdPeriph_Driver/src/stm32f10x_flash.c ****       {
1537:../Libraries//STM32F10x_StdPeriph_Driver/src/stm32f10x_flash.c ****         flashstatus = FLASH_COMPLETE;
1538:../Libraries//STM32F10x_StdPeriph_Driver/src/stm32f10x_flash.c ****       }
1539:../Libraries//STM32F10x_StdPeriph_Driver/src/stm32f10x_flash.c ****     }
1540:../Libraries//STM32F10x_StdPeriph_Driver/src/stm32f10x_flash.c ****   }
1541:../Libraries//STM32F10x_StdPeriph_Driver/src/stm32f10x_flash.c ****   /* Return the Flash Status */
1542:../Libraries//STM32F10x_StdPeriph_Driver/src/stm32f10x_flash.c ****   return flashstatus;
1543:../Libraries//STM32F10x_StdPeriph_Driver/src/stm32f10x_flash.c **** }
 512              		.loc 1 1543 0
 513 0028 7047     		bx	lr
 514              	.L61:
 515 002a 00BF     		.align	2
 516              	.L60:
 517 002c 00200240 		.word	1073881088
 518              	.LFE54:
 520              		.section	.text.FLASH_WaitForLastOperation,"ax",%progbits
 521              		.align	1
 522              		.global	FLASH_WaitForLastOperation
 523              		.thumb
 524              		.thumb_func
 526              	FLASH_WaitForLastOperation:
 527              	.LFB55:
1544:../Libraries//STM32F10x_StdPeriph_Driver/src/stm32f10x_flash.c **** 
1545:../Libraries//STM32F10x_StdPeriph_Driver/src/stm32f10x_flash.c **** #ifdef STM32F10X_XL
1546:../Libraries//STM32F10x_StdPeriph_Driver/src/stm32f10x_flash.c **** /**
1547:../Libraries//STM32F10x_StdPeriph_Driver/src/stm32f10x_flash.c ****   * @brief  Returns the FLASH Bank2 Status.
1548:../Libraries//STM32F10x_StdPeriph_Driver/src/stm32f10x_flash.c ****   * @note   This function can be used for STM32F10x_XL density devices.
1549:../Libraries//STM32F10x_StdPeriph_Driver/src/stm32f10x_flash.c ****   * @param  None
1550:../Libraries//STM32F10x_StdPeriph_Driver/src/stm32f10x_flash.c ****   * @retval FLASH Status: The returned value can be: FLASH_BUSY, FLASH_ERROR_PG,
1551:../Libraries//STM32F10x_StdPeriph_Driver/src/stm32f10x_flash.c ****   *        FLASH_ERROR_WRP or FLASH_COMPLETE
1552:../Libraries//STM32F10x_StdPeriph_Driver/src/stm32f10x_flash.c ****   */
1553:../Libraries//STM32F10x_StdPeriph_Driver/src/stm32f10x_flash.c **** FLASH_Status FLASH_GetBank2Status(void)
1554:../Libraries//STM32F10x_StdPeriph_Driver/src/stm32f10x_flash.c **** {
1555:../Libraries//STM32F10x_StdPeriph_Driver/src/stm32f10x_flash.c ****   FLASH_Status flashstatus = FLASH_COMPLETE;
1556:../Libraries//STM32F10x_StdPeriph_Driver/src/stm32f10x_flash.c ****   
1557:../Libraries//STM32F10x_StdPeriph_Driver/src/stm32f10x_flash.c ****   if((FLASH->SR2 & (FLASH_FLAG_BANK2_BSY & 0x7FFFFFFF)) == (FLASH_FLAG_BANK2_BSY & 0x7FFFFFFF)) 
1558:../Libraries//STM32F10x_StdPeriph_Driver/src/stm32f10x_flash.c ****   {
1559:../Libraries//STM32F10x_StdPeriph_Driver/src/stm32f10x_flash.c ****     flashstatus = FLASH_BUSY;
1560:../Libraries//STM32F10x_StdPeriph_Driver/src/stm32f10x_flash.c ****   }
1561:../Libraries//STM32F10x_StdPeriph_Driver/src/stm32f10x_flash.c ****   else 
1562:../Libraries//STM32F10x_StdPeriph_Driver/src/stm32f10x_flash.c ****   {  
1563:../Libraries//STM32F10x_StdPeriph_Driver/src/stm32f10x_flash.c ****     if((FLASH->SR2 & (FLASH_FLAG_BANK2_PGERR & 0x7FFFFFFF)) != 0)
1564:../Libraries//STM32F10x_StdPeriph_Driver/src/stm32f10x_flash.c ****     { 
1565:../Libraries//STM32F10x_StdPeriph_Driver/src/stm32f10x_flash.c ****       flashstatus = FLASH_ERROR_PG;
1566:../Libraries//STM32F10x_StdPeriph_Driver/src/stm32f10x_flash.c ****     }
1567:../Libraries//STM32F10x_StdPeriph_Driver/src/stm32f10x_flash.c ****     else 
1568:../Libraries//STM32F10x_StdPeriph_Driver/src/stm32f10x_flash.c ****     {
1569:../Libraries//STM32F10x_StdPeriph_Driver/src/stm32f10x_flash.c ****       if((FLASH->SR2 & (FLASH_FLAG_BANK2_WRPRTERR & 0x7FFFFFFF)) != 0 )
1570:../Libraries//STM32F10x_StdPeriph_Driver/src/stm32f10x_flash.c ****       {
1571:../Libraries//STM32F10x_StdPeriph_Driver/src/stm32f10x_flash.c ****         flashstatus = FLASH_ERROR_WRP;
1572:../Libraries//STM32F10x_StdPeriph_Driver/src/stm32f10x_flash.c ****       }
1573:../Libraries//STM32F10x_StdPeriph_Driver/src/stm32f10x_flash.c ****       else
1574:../Libraries//STM32F10x_StdPeriph_Driver/src/stm32f10x_flash.c ****       {
1575:../Libraries//STM32F10x_StdPeriph_Driver/src/stm32f10x_flash.c ****         flashstatus = FLASH_COMPLETE;
1576:../Libraries//STM32F10x_StdPeriph_Driver/src/stm32f10x_flash.c ****       }
1577:../Libraries//STM32F10x_StdPeriph_Driver/src/stm32f10x_flash.c ****     }
1578:../Libraries//STM32F10x_StdPeriph_Driver/src/stm32f10x_flash.c ****   }
1579:../Libraries//STM32F10x_StdPeriph_Driver/src/stm32f10x_flash.c ****   /* Return the Flash Status */
1580:../Libraries//STM32F10x_StdPeriph_Driver/src/stm32f10x_flash.c ****   return flashstatus;
1581:../Libraries//STM32F10x_StdPeriph_Driver/src/stm32f10x_flash.c **** }
1582:../Libraries//STM32F10x_StdPeriph_Driver/src/stm32f10x_flash.c **** #endif /* STM32F10X_XL */
1583:../Libraries//STM32F10x_StdPeriph_Driver/src/stm32f10x_flash.c **** /**
1584:../Libraries//STM32F10x_StdPeriph_Driver/src/stm32f10x_flash.c ****   * @brief  Waits for a Flash operation to complete or a TIMEOUT to occur.
1585:../Libraries//STM32F10x_StdPeriph_Driver/src/stm32f10x_flash.c ****   * @note   This function can be used for all STM32F10x devices, 
1586:../Libraries//STM32F10x_StdPeriph_Driver/src/stm32f10x_flash.c ****   *         it is equivalent to FLASH_WaitForLastBank1Operation.
1587:../Libraries//STM32F10x_StdPeriph_Driver/src/stm32f10x_flash.c ****   *         - For STM32F10X_XL devices this function waits for a Bank1 Flash operation
1588:../Libraries//STM32F10x_StdPeriph_Driver/src/stm32f10x_flash.c ****   *           to complete or a TIMEOUT to occur.
1589:../Libraries//STM32F10x_StdPeriph_Driver/src/stm32f10x_flash.c ****   *         - For all other devices it waits for a Flash operation to complete 
1590:../Libraries//STM32F10x_StdPeriph_Driver/src/stm32f10x_flash.c ****   *           or a TIMEOUT to occur.
1591:../Libraries//STM32F10x_StdPeriph_Driver/src/stm32f10x_flash.c ****   * @param  Timeout: FLASH programming Timeout
1592:../Libraries//STM32F10x_StdPeriph_Driver/src/stm32f10x_flash.c ****   * @retval FLASH Status: The returned value can be: FLASH_ERROR_PG,
1593:../Libraries//STM32F10x_StdPeriph_Driver/src/stm32f10x_flash.c ****   *         FLASH_ERROR_WRP, FLASH_COMPLETE or FLASH_TIMEOUT.
1594:../Libraries//STM32F10x_StdPeriph_Driver/src/stm32f10x_flash.c ****   */
1595:../Libraries//STM32F10x_StdPeriph_Driver/src/stm32f10x_flash.c **** FLASH_Status FLASH_WaitForLastOperation(uint32_t Timeout)
1596:../Libraries//STM32F10x_StdPeriph_Driver/src/stm32f10x_flash.c **** { 
 528              		.loc 1 1596 0
 529              		@ args = 0, pretend = 0, frame = 0
 530              		@ frame_needed = 0, uses_anonymous_args = 0
 531              	.LVL25:
 532 0000 10B5     		push	{r4, lr}
 533              	.LCFI0:
 534              		.loc 1 1596 0
 535 0002 0446     		mov	r4, r0
1597:../Libraries//STM32F10x_StdPeriph_Driver/src/stm32f10x_flash.c ****   FLASH_Status status = FLASH_COMPLETE;
1598:../Libraries//STM32F10x_StdPeriph_Driver/src/stm32f10x_flash.c ****    
1599:../Libraries//STM32F10x_StdPeriph_Driver/src/stm32f10x_flash.c ****   /* Check for the Flash Status */
1600:../Libraries//STM32F10x_StdPeriph_Driver/src/stm32f10x_flash.c ****   status = FLASH_GetBank1Status();
 536              		.loc 1 1600 0
 537 0004 FFF7FEFF 		bl	FLASH_GetBank1Status
 538              	.LVL26:
1601:../Libraries//STM32F10x_StdPeriph_Driver/src/stm32f10x_flash.c ****   /* Wait for a Flash operation to complete or a TIMEOUT to occur */
1602:../Libraries//STM32F10x_StdPeriph_Driver/src/stm32f10x_flash.c ****   while((status == FLASH_BUSY) && (Timeout != 0x00))
 539              		.loc 1 1602 0
 540 0008 02E0     		b	.L63
 541              	.L65:
1603:../Libraries//STM32F10x_StdPeriph_Driver/src/stm32f10x_flash.c ****   {
1604:../Libraries//STM32F10x_StdPeriph_Driver/src/stm32f10x_flash.c ****     status = FLASH_GetBank1Status();
 542              		.loc 1 1604 0
 543 000a FFF7FEFF 		bl	FLASH_GetBank1Status
 544              	.LVL27:
1605:../Libraries//STM32F10x_StdPeriph_Driver/src/stm32f10x_flash.c ****     Timeout--;
 545              		.loc 1 1605 0
 546 000e 013C     		subs	r4, r4, #1
 547              	.LVL28:
 548              	.L63:
1602:../Libraries//STM32F10x_StdPeriph_Driver/src/stm32f10x_flash.c ****   while((status == FLASH_BUSY) && (Timeout != 0x00))
 549              		.loc 1 1602 0 discriminator 1
 550 0010 0128     		cmp	r0, #1
 551 0012 03D1     		bne	.L64
1602:../Libraries//STM32F10x_StdPeriph_Driver/src/stm32f10x_flash.c ****   while((status == FLASH_BUSY) && (Timeout != 0x00))
 552              		.loc 1 1602 0 is_stmt 0 discriminator 2
 553 0014 002C     		cmp	r4, #0
 554 0016 F8D1     		bne	.L65
1606:../Libraries//STM32F10x_StdPeriph_Driver/src/stm32f10x_flash.c ****   }
1607:../Libraries//STM32F10x_StdPeriph_Driver/src/stm32f10x_flash.c ****   if(Timeout == 0x00 )
1608:../Libraries//STM32F10x_StdPeriph_Driver/src/stm32f10x_flash.c ****   {
1609:../Libraries//STM32F10x_StdPeriph_Driver/src/stm32f10x_flash.c ****     status = FLASH_TIMEOUT;
 555              		.loc 1 1609 0 is_stmt 1
 556 0018 0430     		adds	r0, r0, #4
 557              	.LVL29:
 558 001a 10BD     		pop	{r4, pc}
 559              	.LVL30:
 560              	.L64:
 561 001c 002C     		cmp	r4, #0
 562 001e 08BF     		it	eq
 563 0020 0520     		moveq	r0, #5
 564              	.LVL31:
1610:../Libraries//STM32F10x_StdPeriph_Driver/src/stm32f10x_flash.c ****   }
1611:../Libraries//STM32F10x_StdPeriph_Driver/src/stm32f10x_flash.c ****   /* Return the operation status */
1612:../Libraries//STM32F10x_StdPeriph_Driver/src/stm32f10x_flash.c ****   return status;
1613:../Libraries//STM32F10x_StdPeriph_Driver/src/stm32f10x_flash.c **** }
 565              		.loc 1 1613 0
 566 0022 10BD     		pop	{r4, pc}
 567              	.LFE55:
 569              		.section	.text.FLASH_UserOptionByteConfig,"ax",%progbits
 570              		.align	1
 571              		.global	FLASH_UserOptionByteConfig
 572              		.thumb
 573              		.thumb_func
 575              	FLASH_UserOptionByteConfig:
 576              	.LFB45:
1119:../Libraries//STM32F10x_StdPeriph_Driver/src/stm32f10x_flash.c **** {
 577              		.loc 1 1119 0
 578              		@ args = 0, pretend = 0, frame = 0
 579              		@ frame_needed = 0, uses_anonymous_args = 0
 580              	.LVL32:
 581 0000 F8B5     		push	{r3, r4, r5, r6, r7, lr}
 582              	.LCFI1:
1128:../Libraries//STM32F10x_StdPeriph_Driver/src/stm32f10x_flash.c ****   FLASH->OPTKEYR = FLASH_KEY1;
 583              		.loc 1 1128 0
 584 0002 124E     		ldr	r6, .L70
 585 0004 124B     		ldr	r3, .L70+4
1119:../Libraries//STM32F10x_StdPeriph_Driver/src/stm32f10x_flash.c **** {
 586              		.loc 1 1119 0
 587 0006 0446     		mov	r4, r0
1128:../Libraries//STM32F10x_StdPeriph_Driver/src/stm32f10x_flash.c ****   FLASH->OPTKEYR = FLASH_KEY1;
 588              		.loc 1 1128 0
 589 0008 B360     		str	r3, [r6, #8]
1129:../Libraries//STM32F10x_StdPeriph_Driver/src/stm32f10x_flash.c ****   FLASH->OPTKEYR = FLASH_KEY2;
 590              		.loc 1 1129 0
 591 000a 124B     		ldr	r3, .L70+8
1132:../Libraries//STM32F10x_StdPeriph_Driver/src/stm32f10x_flash.c ****   status = FLASH_WaitForLastOperation(ProgramTimeout);
 592              		.loc 1 1132 0
 593 000c 4FF40050 		mov	r0, #8192
 594              	.LVL33:
1129:../Libraries//STM32F10x_StdPeriph_Driver/src/stm32f10x_flash.c ****   FLASH->OPTKEYR = FLASH_KEY2;
 595              		.loc 1 1129 0
 596 0010 B360     		str	r3, [r6, #8]
1119:../Libraries//STM32F10x_StdPeriph_Driver/src/stm32f10x_flash.c **** {
 597              		.loc 1 1119 0
 598 0012 0D46     		mov	r5, r1
 599 0014 1746     		mov	r7, r2
1132:../Libraries//STM32F10x_StdPeriph_Driver/src/stm32f10x_flash.c ****   status = FLASH_WaitForLastOperation(ProgramTimeout);
 600              		.loc 1 1132 0
 601 0016 FFF7FEFF 		bl	FLASH_WaitForLastOperation
 602              	.LVL34:
1134:../Libraries//STM32F10x_StdPeriph_Driver/src/stm32f10x_flash.c ****   if(status == FLASH_COMPLETE)
 603              		.loc 1 1134 0
 604 001a 0428     		cmp	r0, #4
 605 001c 15D1     		bne	.L69
1137:../Libraries//STM32F10x_StdPeriph_Driver/src/stm32f10x_flash.c ****     FLASH->CR |= CR_OPTPG_Set; 
 606              		.loc 1 1137 0
 607 001e 3369     		ldr	r3, [r6, #16]
1139:../Libraries//STM32F10x_StdPeriph_Driver/src/stm32f10x_flash.c ****     OB->USER = OB_IWDG | (uint16_t)(OB_STOP | (uint16_t)(OB_STDBY | ((uint16_t)0xF8))); 
 608              		.loc 1 1139 0
 609 0020 44F0F804 		orr	r4, r4, #248
1137:../Libraries//STM32F10x_StdPeriph_Driver/src/stm32f10x_flash.c ****     FLASH->CR |= CR_OPTPG_Set; 
 610              		.loc 1 1137 0
 611 0024 43F01003 		orr	r3, r3, #16
 612 0028 3361     		str	r3, [r6, #16]
1139:../Libraries//STM32F10x_StdPeriph_Driver/src/stm32f10x_flash.c ****     OB->USER = OB_IWDG | (uint16_t)(OB_STOP | (uint16_t)(OB_STDBY | ((uint16_t)0xF8))); 
 613              		.loc 1 1139 0
 614 002a 2543     		orrs	r5, r5, r4
 615 002c 0A4B     		ldr	r3, .L70+12
 616 002e 2F43     		orrs	r7, r7, r5
 617 0030 5F80     		strh	r7, [r3, #2]	@ movhi
1142:../Libraries//STM32F10x_StdPeriph_Driver/src/stm32f10x_flash.c ****     status = FLASH_WaitForLastOperation(ProgramTimeout);
 618              		.loc 1 1142 0
 619 0032 4FF40050 		mov	r0, #8192
 620              	.LVL35:
 621 0036 FFF7FEFF 		bl	FLASH_WaitForLastOperation
 622              	.LVL36:
1143:../Libraries//STM32F10x_StdPeriph_Driver/src/stm32f10x_flash.c ****     if(status != FLASH_TIMEOUT)
 623              		.loc 1 1143 0
 624 003a 0528     		cmp	r0, #5
 625 003c 05D0     		beq	.L69
1146:../Libraries//STM32F10x_StdPeriph_Driver/src/stm32f10x_flash.c ****       FLASH->CR &= CR_OPTPG_Reset;
 626              		.loc 1 1146 0
 627 003e 3269     		ldr	r2, [r6, #16]
 628 0040 41F6EF73 		movw	r3, #8175
 629 0044 02EA0303 		and	r3, r2, r3
 630 0048 3361     		str	r3, [r6, #16]
 631              	.LVL37:
 632              	.L69:
1151:../Libraries//STM32F10x_StdPeriph_Driver/src/stm32f10x_flash.c **** }
 633              		.loc 1 1151 0
 634 004a F8BD     		pop	{r3, r4, r5, r6, r7, pc}
 635              	.L71:
 636              		.align	2
 637              	.L70:
 638 004c 00200240 		.word	1073881088
 639 0050 23016745 		.word	1164378403
 640 0054 AB89EFCD 		.word	-839939669
 641 0058 00F8FF1F 		.word	536868864
 642              	.LFE45:
 644              		.section	.text.FLASH_ReadOutProtection,"ax",%progbits
 645              		.align	1
 646              		.global	FLASH_ReadOutProtection
 647              		.thumb
 648              		.thumb_func
 650              	FLASH_ReadOutProtection:
 651              	.LFB44:
1050:../Libraries//STM32F10x_StdPeriph_Driver/src/stm32f10x_flash.c **** {
 652              		.loc 1 1050 0
 653              		@ args = 0, pretend = 0, frame = 0
 654              		@ frame_needed = 0, uses_anonymous_args = 0
 655              	.LVL38:
 656 0000 38B5     		push	{r3, r4, r5, lr}
 657              	.LCFI2:
1050:../Libraries//STM32F10x_StdPeriph_Driver/src/stm32f10x_flash.c **** {
 658              		.loc 1 1050 0
 659 0002 0546     		mov	r5, r0
1054:../Libraries//STM32F10x_StdPeriph_Driver/src/stm32f10x_flash.c ****   status = FLASH_WaitForLastOperation(EraseTimeout);
 660              		.loc 1 1054 0
 661 0004 4FF43020 		mov	r0, #720896
 662              	.LVL39:
 663 0008 FFF7FEFF 		bl	FLASH_WaitForLastOperation
 664              	.LVL40:
1055:../Libraries//STM32F10x_StdPeriph_Driver/src/stm32f10x_flash.c ****   if(status == FLASH_COMPLETE)
 665              		.loc 1 1055 0
 666 000c 0428     		cmp	r0, #4
 667 000e 38D1     		bne	.L73
1058:../Libraries//STM32F10x_StdPeriph_Driver/src/stm32f10x_flash.c ****     FLASH->OPTKEYR = FLASH_KEY1;
 668              		.loc 1 1058 0
 669 0010 1C4C     		ldr	r4, .L78
 670 0012 1D4B     		ldr	r3, .L78+4
1063:../Libraries//STM32F10x_StdPeriph_Driver/src/stm32f10x_flash.c ****     status = FLASH_WaitForLastOperation(EraseTimeout);
 671              		.loc 1 1063 0
 672 0014 4FF43020 		mov	r0, #720896
 673              	.LVL41:
1058:../Libraries//STM32F10x_StdPeriph_Driver/src/stm32f10x_flash.c ****     FLASH->OPTKEYR = FLASH_KEY1;
 674              		.loc 1 1058 0
 675 0018 A360     		str	r3, [r4, #8]
1059:../Libraries//STM32F10x_StdPeriph_Driver/src/stm32f10x_flash.c ****     FLASH->OPTKEYR = FLASH_KEY2;
 676              		.loc 1 1059 0
 677 001a 1C4B     		ldr	r3, .L78+8
 678 001c A360     		str	r3, [r4, #8]
1060:../Libraries//STM32F10x_StdPeriph_Driver/src/stm32f10x_flash.c ****     FLASH->CR |= CR_OPTER_Set;
 679              		.loc 1 1060 0
 680 001e 2369     		ldr	r3, [r4, #16]
 681 0020 43F02003 		orr	r3, r3, #32
 682 0024 2361     		str	r3, [r4, #16]
1061:../Libraries//STM32F10x_StdPeriph_Driver/src/stm32f10x_flash.c ****     FLASH->CR |= CR_STRT_Set;
 683              		.loc 1 1061 0
 684 0026 2369     		ldr	r3, [r4, #16]
 685 0028 43F04003 		orr	r3, r3, #64
 686 002c 2361     		str	r3, [r4, #16]
1063:../Libraries//STM32F10x_StdPeriph_Driver/src/stm32f10x_flash.c ****     status = FLASH_WaitForLastOperation(EraseTimeout);
 687              		.loc 1 1063 0
 688 002e FFF7FEFF 		bl	FLASH_WaitForLastOperation
 689              	.LVL42:
1064:../Libraries//STM32F10x_StdPeriph_Driver/src/stm32f10x_flash.c ****     if(status == FLASH_COMPLETE)
 690              		.loc 1 1064 0
 691 0032 0428     		cmp	r0, #4
 692 0034 1DD1     		bne	.L74
1067:../Libraries//STM32F10x_StdPeriph_Driver/src/stm32f10x_flash.c ****       FLASH->CR &= CR_OPTER_Reset;
 693              		.loc 1 1067 0
 694 0036 2269     		ldr	r2, [r4, #16]
 695 0038 41F6DF73 		movw	r3, #8159
 696 003c 02EA0303 		and	r3, r2, r3
 697 0040 2361     		str	r3, [r4, #16]
1069:../Libraries//STM32F10x_StdPeriph_Driver/src/stm32f10x_flash.c ****       FLASH->CR |= CR_OPTPG_Set; 
 698              		.loc 1 1069 0
 699 0042 2369     		ldr	r3, [r4, #16]
 700 0044 43F01003 		orr	r3, r3, #16
 701 0048 2361     		str	r3, [r4, #16]
 702 004a 114B     		ldr	r3, .L78+12
1070:../Libraries//STM32F10x_StdPeriph_Driver/src/stm32f10x_flash.c ****       if(NewState != DISABLE)
 703              		.loc 1 1070 0
 704 004c 0DB1     		cbz	r5, .L75
1072:../Libraries//STM32F10x_StdPeriph_Driver/src/stm32f10x_flash.c ****         OB->RDP = 0x00;
 705              		.loc 1 1072 0
 706 004e 0022     		movs	r2, #0
 707 0050 00E0     		b	.L77
 708              	.L75:
1076:../Libraries//STM32F10x_StdPeriph_Driver/src/stm32f10x_flash.c ****         OB->RDP = RDP_Key;  
 709              		.loc 1 1076 0
 710 0052 A522     		movs	r2, #165
 711              	.L77:
 712 0054 1A80     		strh	r2, [r3, #0]	@ movhi
1079:../Libraries//STM32F10x_StdPeriph_Driver/src/stm32f10x_flash.c ****       status = FLASH_WaitForLastOperation(EraseTimeout); 
 713              		.loc 1 1079 0
 714 0056 4FF43020 		mov	r0, #720896
 715              	.LVL43:
 716 005a FFF7FEFF 		bl	FLASH_WaitForLastOperation
 717              	.LVL44:
1081:../Libraries//STM32F10x_StdPeriph_Driver/src/stm32f10x_flash.c ****       if(status != FLASH_TIMEOUT)
 718              		.loc 1 1081 0
 719 005e 0528     		cmp	r0, #5
 720 0060 0FD0     		beq	.L73
1084:../Libraries//STM32F10x_StdPeriph_Driver/src/stm32f10x_flash.c ****         FLASH->CR &= CR_OPTPG_Reset;
 721              		.loc 1 1084 0
 722 0062 084A     		ldr	r2, .L78
 723 0064 41F6EF73 		movw	r3, #8175
 724 0068 1169     		ldr	r1, [r2, #16]
 725 006a 01EA0303 		and	r3, r1, r3
 726 006e 1361     		str	r3, [r2, #16]
 727 0070 38BD     		pop	{r3, r4, r5, pc}
 728              	.L74:
1089:../Libraries//STM32F10x_StdPeriph_Driver/src/stm32f10x_flash.c ****       if(status != FLASH_TIMEOUT)
 729              		.loc 1 1089 0
 730 0072 0528     		cmp	r0, #5
 731 0074 05D0     		beq	.L73
1092:../Libraries//STM32F10x_StdPeriph_Driver/src/stm32f10x_flash.c ****         FLASH->CR &= CR_OPTER_Reset;
 732              		.loc 1 1092 0
 733 0076 2269     		ldr	r2, [r4, #16]
 734 0078 41F6DF73 		movw	r3, #8159
 735 007c 02EA0303 		and	r3, r2, r3
 736 0080 2361     		str	r3, [r4, #16]
 737              	.LVL45:
 738              	.L73:
1098:../Libraries//STM32F10x_StdPeriph_Driver/src/stm32f10x_flash.c **** }
 739              		.loc 1 1098 0
 740 0082 38BD     		pop	{r3, r4, r5, pc}
 741              	.L79:
 742              		.align	2
 743              	.L78:
 744 0084 00200240 		.word	1073881088
 745 0088 23016745 		.word	1164378403
 746 008c AB89EFCD 		.word	-839939669
 747 0090 00F8FF1F 		.word	536868864
 748              	.LFE44:
 750              		.section	.text.FLASH_EnableWriteProtection,"ax",%progbits
 751              		.align	1
 752              		.global	FLASH_EnableWriteProtection
 753              		.thumb
 754              		.thumb_func
 756              	FLASH_EnableWriteProtection:
 757              	.LFB43:
 976:../Libraries//STM32F10x_StdPeriph_Driver/src/stm32f10x_flash.c **** {
 758              		.loc 1 976 0
 759              		@ args = 0, pretend = 0, frame = 0
 760              		@ frame_needed = 0, uses_anonymous_args = 0
 761              	.LVL46:
 762 0000 10B5     		push	{r4, lr}
 763              	.LCFI3:
 976:../Libraries//STM32F10x_StdPeriph_Driver/src/stm32f10x_flash.c **** {
 764              		.loc 1 976 0
 765 0002 0446     		mov	r4, r0
 766              	.LVL47:
 991:../Libraries//STM32F10x_StdPeriph_Driver/src/stm32f10x_flash.c ****   status = FLASH_WaitForLastOperation(ProgramTimeout);
 767              		.loc 1 991 0
 768 0004 4FF40050 		mov	r0, #8192
 769              	.LVL48:
 770 0008 FFF7FEFF 		bl	FLASH_WaitForLastOperation
 771              	.LVL49:
 993:../Libraries//STM32F10x_StdPeriph_Driver/src/stm32f10x_flash.c ****   if(status == FLASH_COMPLETE)
 772              		.loc 1 993 0
 773 000c 0428     		cmp	r0, #4
 774 000e 42D1     		bne	.L81
 996:../Libraries//STM32F10x_StdPeriph_Driver/src/stm32f10x_flash.c ****     FLASH->OPTKEYR = FLASH_KEY1;
 775              		.loc 1 996 0
 776 0010 214B     		ldr	r3, .L90
 777 0012 2249     		ldr	r1, .L90+4
 984:../Libraries//STM32F10x_StdPeriph_Driver/src/stm32f10x_flash.c ****   FLASH_Pages = (uint32_t)(~FLASH_Pages);
 778              		.loc 1 984 0
 779 0014 E443     		mvns	r4, r4
 780              	.LVL50:
 996:../Libraries//STM32F10x_StdPeriph_Driver/src/stm32f10x_flash.c ****     FLASH->OPTKEYR = FLASH_KEY1;
 781              		.loc 1 996 0
 782 0016 9960     		str	r1, [r3, #8]
 997:../Libraries//STM32F10x_StdPeriph_Driver/src/stm32f10x_flash.c ****     FLASH->OPTKEYR = FLASH_KEY2;
 783              		.loc 1 997 0
 784 0018 2149     		ldr	r1, .L90+8
 985:../Libraries//STM32F10x_StdPeriph_Driver/src/stm32f10x_flash.c ****   WRP0_Data = (uint16_t)(FLASH_Pages & WRP0_Mask);
 785              		.loc 1 985 0
 786 001a E2B2     		uxtb	r2, r4
 997:../Libraries//STM32F10x_StdPeriph_Driver/src/stm32f10x_flash.c ****     FLASH->OPTKEYR = FLASH_KEY2;
 787              		.loc 1 997 0
 788 001c 9960     		str	r1, [r3, #8]
 998:../Libraries//STM32F10x_StdPeriph_Driver/src/stm32f10x_flash.c ****     FLASH->CR |= CR_OPTPG_Set;
 789              		.loc 1 998 0
 790 001e 1969     		ldr	r1, [r3, #16]
 999:../Libraries//STM32F10x_StdPeriph_Driver/src/stm32f10x_flash.c ****     if(WRP0_Data != 0xFF)
 791              		.loc 1 999 0
 792 0020 FF2A     		cmp	r2, #255
 998:../Libraries//STM32F10x_StdPeriph_Driver/src/stm32f10x_flash.c ****     FLASH->CR |= CR_OPTPG_Set;
 793              		.loc 1 998 0
 794 0022 41F01001 		orr	r1, r1, #16
 795 0026 1961     		str	r1, [r3, #16]
 999:../Libraries//STM32F10x_StdPeriph_Driver/src/stm32f10x_flash.c ****     if(WRP0_Data != 0xFF)
 796              		.loc 1 999 0
 797 0028 07D0     		beq	.L82
1001:../Libraries//STM32F10x_StdPeriph_Driver/src/stm32f10x_flash.c ****       OB->WRP0 = WRP0_Data;
 798              		.loc 1 1001 0
 799 002a 1E4B     		ldr	r3, .L90+12
1004:../Libraries//STM32F10x_StdPeriph_Driver/src/stm32f10x_flash.c ****       status = FLASH_WaitForLastOperation(ProgramTimeout);
 800              		.loc 1 1004 0
 801 002c 4FF40050 		mov	r0, #8192
 802              	.LVL51:
1001:../Libraries//STM32F10x_StdPeriph_Driver/src/stm32f10x_flash.c ****       OB->WRP0 = WRP0_Data;
 803              		.loc 1 1001 0
 804 0030 1A81     		strh	r2, [r3, #8]	@ movhi
1004:../Libraries//STM32F10x_StdPeriph_Driver/src/stm32f10x_flash.c ****       status = FLASH_WaitForLastOperation(ProgramTimeout);
 805              		.loc 1 1004 0
 806 0032 FFF7FEFF 		bl	FLASH_WaitForLastOperation
 807              	.LVL52:
1006:../Libraries//STM32F10x_StdPeriph_Driver/src/stm32f10x_flash.c ****     if((status == FLASH_COMPLETE) && (WRP1_Data != 0xFF))
 808              		.loc 1 1006 0
 809 0036 0428     		cmp	r0, #4
 810 0038 22D1     		bne	.L86
 811              	.LVL53:
 812              	.L82:
 986:../Libraries//STM32F10x_StdPeriph_Driver/src/stm32f10x_flash.c ****   WRP1_Data = (uint16_t)((FLASH_Pages & WRP1_Mask) >> 8);
 813              		.loc 1 986 0 discriminator 1
 814 003a 04F47F43 		and	r3, r4, #65280
 815 003e 1B0A     		lsrs	r3, r3, #8
1006:../Libraries//STM32F10x_StdPeriph_Driver/src/stm32f10x_flash.c ****     if((status == FLASH_COMPLETE) && (WRP1_Data != 0xFF))
 816              		.loc 1 1006 0 discriminator 1
 817 0040 FF2B     		cmp	r3, #255
 818 0042 07D0     		beq	.L84
1008:../Libraries//STM32F10x_StdPeriph_Driver/src/stm32f10x_flash.c ****       OB->WRP1 = WRP1_Data;
 819              		.loc 1 1008 0
 820 0044 174A     		ldr	r2, .L90+12
1011:../Libraries//STM32F10x_StdPeriph_Driver/src/stm32f10x_flash.c ****       status = FLASH_WaitForLastOperation(ProgramTimeout);
 821              		.loc 1 1011 0
 822 0046 4FF40050 		mov	r0, #8192
1008:../Libraries//STM32F10x_StdPeriph_Driver/src/stm32f10x_flash.c ****       OB->WRP1 = WRP1_Data;
 823              		.loc 1 1008 0
 824 004a 5381     		strh	r3, [r2, #10]	@ movhi
1011:../Libraries//STM32F10x_StdPeriph_Driver/src/stm32f10x_flash.c ****       status = FLASH_WaitForLastOperation(ProgramTimeout);
 825              		.loc 1 1011 0
 826 004c FFF7FEFF 		bl	FLASH_WaitForLastOperation
 827              	.LVL54:
1013:../Libraries//STM32F10x_StdPeriph_Driver/src/stm32f10x_flash.c ****     if((status == FLASH_COMPLETE) && (WRP2_Data != 0xFF))
 828              		.loc 1 1013 0
 829 0050 0428     		cmp	r0, #4
 830 0052 15D1     		bne	.L86
 831              	.LVL55:
 832              	.L84:
 987:../Libraries//STM32F10x_StdPeriph_Driver/src/stm32f10x_flash.c ****   WRP2_Data = (uint16_t)((FLASH_Pages & WRP2_Mask) >> 16);
 833              		.loc 1 987 0 discriminator 1
 834 0054 04F47F03 		and	r3, r4, #16711680
 835 0058 1B0C     		lsrs	r3, r3, #16
1013:../Libraries//STM32F10x_StdPeriph_Driver/src/stm32f10x_flash.c ****     if((status == FLASH_COMPLETE) && (WRP2_Data != 0xFF))
 836              		.loc 1 1013 0 discriminator 1
 837 005a FF2B     		cmp	r3, #255
 838 005c 07D0     		beq	.L85
1015:../Libraries//STM32F10x_StdPeriph_Driver/src/stm32f10x_flash.c ****       OB->WRP2 = WRP2_Data;
 839              		.loc 1 1015 0
 840 005e 114A     		ldr	r2, .L90+12
1018:../Libraries//STM32F10x_StdPeriph_Driver/src/stm32f10x_flash.c ****       status = FLASH_WaitForLastOperation(ProgramTimeout);
 841              		.loc 1 1018 0
 842 0060 4FF40050 		mov	r0, #8192
1015:../Libraries//STM32F10x_StdPeriph_Driver/src/stm32f10x_flash.c ****       OB->WRP2 = WRP2_Data;
 843              		.loc 1 1015 0
 844 0064 9381     		strh	r3, [r2, #12]	@ movhi
1018:../Libraries//STM32F10x_StdPeriph_Driver/src/stm32f10x_flash.c ****       status = FLASH_WaitForLastOperation(ProgramTimeout);
 845              		.loc 1 1018 0
 846 0066 FFF7FEFF 		bl	FLASH_WaitForLastOperation
 847              	.LVL56:
1021:../Libraries//STM32F10x_StdPeriph_Driver/src/stm32f10x_flash.c ****     if((status == FLASH_COMPLETE)&& (WRP3_Data != 0xFF))
 848              		.loc 1 1021 0
 849 006a 0428     		cmp	r0, #4
 850 006c 08D1     		bne	.L86
 851              	.LVL57:
 852              	.L85:
 988:../Libraries//STM32F10x_StdPeriph_Driver/src/stm32f10x_flash.c ****   WRP3_Data = (uint16_t)((FLASH_Pages & WRP3_Mask) >> 24);
 853              		.loc 1 988 0 discriminator 1
 854 006e 240E     		lsrs	r4, r4, #24
 855              	.LVL58:
1021:../Libraries//STM32F10x_StdPeriph_Driver/src/stm32f10x_flash.c ****     if((status == FLASH_COMPLETE)&& (WRP3_Data != 0xFF))
 856              		.loc 1 1021 0 discriminator 1
 857 0070 FF2C     		cmp	r4, #255
 858 0072 08D0     		beq	.L89
1023:../Libraries//STM32F10x_StdPeriph_Driver/src/stm32f10x_flash.c ****       OB->WRP3 = WRP3_Data;
 859              		.loc 1 1023 0
 860 0074 0B4B     		ldr	r3, .L90+12
1026:../Libraries//STM32F10x_StdPeriph_Driver/src/stm32f10x_flash.c ****       status = FLASH_WaitForLastOperation(ProgramTimeout);
 861              		.loc 1 1026 0
 862 0076 4FF40050 		mov	r0, #8192
1023:../Libraries//STM32F10x_StdPeriph_Driver/src/stm32f10x_flash.c ****       OB->WRP3 = WRP3_Data;
 863              		.loc 1 1023 0
 864 007a DC81     		strh	r4, [r3, #14]	@ movhi
1026:../Libraries//STM32F10x_StdPeriph_Driver/src/stm32f10x_flash.c ****       status = FLASH_WaitForLastOperation(ProgramTimeout);
 865              		.loc 1 1026 0
 866 007c FFF7FEFF 		bl	FLASH_WaitForLastOperation
 867              	.LVL59:
 868              	.L86:
1029:../Libraries//STM32F10x_StdPeriph_Driver/src/stm32f10x_flash.c ****     if(status != FLASH_TIMEOUT)
 869              		.loc 1 1029 0
 870 0080 0528     		cmp	r0, #5
 871 0082 01D1     		bne	.L87
 872 0084 10BD     		pop	{r4, pc}
 873              	.LVL60:
 874              	.L89:
1021:../Libraries//STM32F10x_StdPeriph_Driver/src/stm32f10x_flash.c ****     if((status == FLASH_COMPLETE)&& (WRP3_Data != 0xFF))
 875              		.loc 1 1021 0
 876 0086 0420     		movs	r0, #4
 877              	.L87:
1032:../Libraries//STM32F10x_StdPeriph_Driver/src/stm32f10x_flash.c ****       FLASH->CR &= CR_OPTPG_Reset;
 878              		.loc 1 1032 0
 879 0088 034A     		ldr	r2, .L90
 880 008a 41F6EF73 		movw	r3, #8175
 881 008e 1169     		ldr	r1, [r2, #16]
 882 0090 01EA0303 		and	r3, r1, r3
 883 0094 1361     		str	r3, [r2, #16]
 884              	.L81:
 885              	.LVL61:
1037:../Libraries//STM32F10x_StdPeriph_Driver/src/stm32f10x_flash.c **** }
 886              		.loc 1 1037 0
 887 0096 10BD     		pop	{r4, pc}
 888              	.L91:
 889              		.align	2
 890              	.L90:
 891 0098 00200240 		.word	1073881088
 892 009c 23016745 		.word	1164378403
 893 00a0 AB89EFCD 		.word	-839939669
 894 00a4 00F8FF1F 		.word	536868864
 895              	.LFE43:
 897              		.section	.text.FLASH_ProgramOptionByteData,"ax",%progbits
 898              		.align	1
 899              		.global	FLASH_ProgramOptionByteData
 900              		.thumb
 901              		.thumb_func
 903              	FLASH_ProgramOptionByteData:
 904              	.LFB42:
 930:../Libraries//STM32F10x_StdPeriph_Driver/src/stm32f10x_flash.c **** {
 905              		.loc 1 930 0
 906              		@ args = 0, pretend = 0, frame = 0
 907              		@ frame_needed = 0, uses_anonymous_args = 0
 908              	.LVL62:
 909 0000 70B5     		push	{r4, r5, r6, lr}
 910              	.LCFI4:
 930:../Libraries//STM32F10x_StdPeriph_Driver/src/stm32f10x_flash.c **** {
 911              		.loc 1 930 0
 912 0002 0446     		mov	r4, r0
 934:../Libraries//STM32F10x_StdPeriph_Driver/src/stm32f10x_flash.c ****   status = FLASH_WaitForLastOperation(ProgramTimeout);
 913              		.loc 1 934 0
 914 0004 4FF40050 		mov	r0, #8192
 915              	.LVL63:
 930:../Libraries//STM32F10x_StdPeriph_Driver/src/stm32f10x_flash.c **** {
 916              		.loc 1 930 0
 917 0008 0E46     		mov	r6, r1
 934:../Libraries//STM32F10x_StdPeriph_Driver/src/stm32f10x_flash.c ****   status = FLASH_WaitForLastOperation(ProgramTimeout);
 918              		.loc 1 934 0
 919 000a FFF7FEFF 		bl	FLASH_WaitForLastOperation
 920              	.LVL64:
 936:../Libraries//STM32F10x_StdPeriph_Driver/src/stm32f10x_flash.c ****   if(status == FLASH_COMPLETE)
 921              		.loc 1 936 0
 922 000e 0428     		cmp	r0, #4
 923 0010 15D1     		bne	.L93
 939:../Libraries//STM32F10x_StdPeriph_Driver/src/stm32f10x_flash.c ****     FLASH->OPTKEYR = FLASH_KEY1;
 924              		.loc 1 939 0
 925 0012 0B4D     		ldr	r5, .L94
 926 0014 0B4B     		ldr	r3, .L94+4
 946:../Libraries//STM32F10x_StdPeriph_Driver/src/stm32f10x_flash.c ****     status = FLASH_WaitForLastOperation(ProgramTimeout);
 927              		.loc 1 946 0
 928 0016 4FF40050 		mov	r0, #8192
 929              	.LVL65:
 939:../Libraries//STM32F10x_StdPeriph_Driver/src/stm32f10x_flash.c ****     FLASH->OPTKEYR = FLASH_KEY1;
 930              		.loc 1 939 0
 931 001a AB60     		str	r3, [r5, #8]
 940:../Libraries//STM32F10x_StdPeriph_Driver/src/stm32f10x_flash.c ****     FLASH->OPTKEYR = FLASH_KEY2;
 932              		.loc 1 940 0
 933 001c 0A4B     		ldr	r3, .L94+8
 934 001e AB60     		str	r3, [r5, #8]
 942:../Libraries//STM32F10x_StdPeriph_Driver/src/stm32f10x_flash.c ****     FLASH->CR |= CR_OPTPG_Set; 
 935              		.loc 1 942 0
 936 0020 2B69     		ldr	r3, [r5, #16]
 937 0022 43F01003 		orr	r3, r3, #16
 938 0026 2B61     		str	r3, [r5, #16]
 943:../Libraries//STM32F10x_StdPeriph_Driver/src/stm32f10x_flash.c ****     *(__IO uint16_t*)Address = Data;
 939              		.loc 1 943 0
 940 0028 2680     		strh	r6, [r4, #0]	@ movhi
 946:../Libraries//STM32F10x_StdPeriph_Driver/src/stm32f10x_flash.c ****     status = FLASH_WaitForLastOperation(ProgramTimeout);
 941              		.loc 1 946 0
 942 002a FFF7FEFF 		bl	FLASH_WaitForLastOperation
 943              	.LVL66:
 947:../Libraries//STM32F10x_StdPeriph_Driver/src/stm32f10x_flash.c ****     if(status != FLASH_TIMEOUT)
 944              		.loc 1 947 0
 945 002e 0528     		cmp	r0, #5
 946 0030 05D0     		beq	.L93
 950:../Libraries//STM32F10x_StdPeriph_Driver/src/stm32f10x_flash.c ****       FLASH->CR &= CR_OPTPG_Reset;
 947              		.loc 1 950 0
 948 0032 2A69     		ldr	r2, [r5, #16]
 949 0034 41F6EF73 		movw	r3, #8175
 950 0038 02EA0303 		and	r3, r2, r3
 951 003c 2B61     		str	r3, [r5, #16]
 952              	.LVL67:
 953              	.L93:
 955:../Libraries//STM32F10x_StdPeriph_Driver/src/stm32f10x_flash.c **** }
 954              		.loc 1 955 0
 955 003e 70BD     		pop	{r4, r5, r6, pc}
 956              	.L95:
 957              		.align	2
 958              	.L94:
 959 0040 00200240 		.word	1073881088
 960 0044 23016745 		.word	1164378403
 961 0048 AB89EFCD 		.word	-839939669
 962              	.LFE42:
 964              		.section	.text.FLASH_ProgramHalfWord,"ax",%progbits
 965              		.align	1
 966              		.global	FLASH_ProgramHalfWord
 967              		.thumb
 968              		.thumb_func
 970              	FLASH_ProgramHalfWord:
 971              	.LFB41:
 859:../Libraries//STM32F10x_StdPeriph_Driver/src/stm32f10x_flash.c **** {
 972              		.loc 1 859 0
 973              		@ args = 0, pretend = 0, frame = 0
 974              		@ frame_needed = 0, uses_anonymous_args = 0
 975              	.LVL68:
 976 0000 70B5     		push	{r4, r5, r6, lr}
 977              	.LCFI5:
 859:../Libraries//STM32F10x_StdPeriph_Driver/src/stm32f10x_flash.c **** {
 978              		.loc 1 859 0
 979 0002 0446     		mov	r4, r0
 900:../Libraries//STM32F10x_StdPeriph_Driver/src/stm32f10x_flash.c ****   status = FLASH_WaitForLastOperation(ProgramTimeout);
 980              		.loc 1 900 0
 981 0004 4FF40050 		mov	r0, #8192
 982              	.LVL69:
 859:../Libraries//STM32F10x_StdPeriph_Driver/src/stm32f10x_flash.c **** {
 983              		.loc 1 859 0
 984 0008 0E46     		mov	r6, r1
 900:../Libraries//STM32F10x_StdPeriph_Driver/src/stm32f10x_flash.c ****   status = FLASH_WaitForLastOperation(ProgramTimeout);
 985              		.loc 1 900 0
 986 000a FFF7FEFF 		bl	FLASH_WaitForLastOperation
 987              	.LVL70:
 902:../Libraries//STM32F10x_StdPeriph_Driver/src/stm32f10x_flash.c ****   if(status == FLASH_COMPLETE)
 988              		.loc 1 902 0
 989 000e 0428     		cmp	r0, #4
 990 0010 0FD1     		bne	.L97
 905:../Libraries//STM32F10x_StdPeriph_Driver/src/stm32f10x_flash.c ****     FLASH->CR |= CR_PG_Set;
 991              		.loc 1 905 0
 992 0012 084D     		ldr	r5, .L98
 909:../Libraries//STM32F10x_StdPeriph_Driver/src/stm32f10x_flash.c ****     status = FLASH_WaitForLastOperation(ProgramTimeout);
 993              		.loc 1 909 0
 994 0014 4FF40050 		mov	r0, #8192
 995              	.LVL71:
 905:../Libraries//STM32F10x_StdPeriph_Driver/src/stm32f10x_flash.c ****     FLASH->CR |= CR_PG_Set;
 996              		.loc 1 905 0
 997 0018 2B69     		ldr	r3, [r5, #16]
 998 001a 43F00103 		orr	r3, r3, #1
 999 001e 2B61     		str	r3, [r5, #16]
 907:../Libraries//STM32F10x_StdPeriph_Driver/src/stm32f10x_flash.c ****     *(__IO uint16_t*)Address = Data;
 1000              		.loc 1 907 0
 1001 0020 2680     		strh	r6, [r4, #0]	@ movhi
 909:../Libraries//STM32F10x_StdPeriph_Driver/src/stm32f10x_flash.c ****     status = FLASH_WaitForLastOperation(ProgramTimeout);
 1002              		.loc 1 909 0
 1003 0022 FFF7FEFF 		bl	FLASH_WaitForLastOperation
 1004              	.LVL72:
 912:../Libraries//STM32F10x_StdPeriph_Driver/src/stm32f10x_flash.c ****     FLASH->CR &= CR_PG_Reset;
 1005              		.loc 1 912 0
 1006 0026 2A69     		ldr	r2, [r5, #16]
 1007 0028 41F6FE73 		movw	r3, #8190
 1008 002c 02EA0303 		and	r3, r2, r3
 1009 0030 2B61     		str	r3, [r5, #16]
 1010              	.LVL73:
 1011              	.L97:
 918:../Libraries//STM32F10x_StdPeriph_Driver/src/stm32f10x_flash.c **** }
 1012              		.loc 1 918 0
 1013 0032 70BD     		pop	{r4, r5, r6, pc}
 1014              	.L99:
 1015              		.align	2
 1016              	.L98:
 1017 0034 00200240 		.word	1073881088
 1018              	.LFE41:
 1020              		.section	.text.FLASH_ProgramWord,"ax",%progbits
 1021              		.align	1
 1022              		.global	FLASH_ProgramWord
 1023              		.thumb
 1024              		.thumb_func
 1026              	FLASH_ProgramWord:
 1027              	.LFB40:
 682:../Libraries//STM32F10x_StdPeriph_Driver/src/stm32f10x_flash.c **** {
 1028              		.loc 1 682 0
 1029              		@ args = 0, pretend = 0, frame = 8
 1030              		@ frame_needed = 0, uses_anonymous_args = 0
 1031              	.LVL74:
 1032 0000 73B5     		push	{r0, r1, r4, r5, r6, lr}
 1033              	.LCFI6:
 684:../Libraries//STM32F10x_StdPeriph_Driver/src/stm32f10x_flash.c ****   __IO uint32_t tmp = 0;
 1034              		.loc 1 684 0
 1035 0002 0023     		movs	r3, #0
 682:../Libraries//STM32F10x_StdPeriph_Driver/src/stm32f10x_flash.c **** {
 1036              		.loc 1 682 0
 1037 0004 0446     		mov	r4, r0
 812:../Libraries//STM32F10x_StdPeriph_Driver/src/stm32f10x_flash.c ****   status = FLASH_WaitForLastOperation(ProgramTimeout);
 1038              		.loc 1 812 0
 1039 0006 4FF40050 		mov	r0, #8192
 1040              	.LVL75:
 682:../Libraries//STM32F10x_StdPeriph_Driver/src/stm32f10x_flash.c **** {
 1041              		.loc 1 682 0
 1042 000a 0E46     		mov	r6, r1
 684:../Libraries//STM32F10x_StdPeriph_Driver/src/stm32f10x_flash.c ****   __IO uint32_t tmp = 0;
 1043              		.loc 1 684 0
 1044 000c 0193     		str	r3, [sp, #4]
 1045              	.LVL76:
 812:../Libraries//STM32F10x_StdPeriph_Driver/src/stm32f10x_flash.c ****   status = FLASH_WaitForLastOperation(ProgramTimeout);
 1046              		.loc 1 812 0
 1047 000e FFF7FEFF 		bl	FLASH_WaitForLastOperation
 1048              	.LVL77:
 814:../Libraries//STM32F10x_StdPeriph_Driver/src/stm32f10x_flash.c ****   if(status == FLASH_COMPLETE)
 1049              		.loc 1 814 0
 1050 0012 0428     		cmp	r0, #4
 1051 0014 1BD1     		bne	.L101
 818:../Libraries//STM32F10x_StdPeriph_Driver/src/stm32f10x_flash.c ****     FLASH->CR |= CR_PG_Set;
 1052              		.loc 1 818 0
 1053 0016 0E4D     		ldr	r5, .L103
 822:../Libraries//STM32F10x_StdPeriph_Driver/src/stm32f10x_flash.c ****     status = FLASH_WaitForLastOperation(ProgramTimeout);
 1054              		.loc 1 822 0
 1055 0018 4FF40050 		mov	r0, #8192
 1056              	.LVL78:
 818:../Libraries//STM32F10x_StdPeriph_Driver/src/stm32f10x_flash.c ****     FLASH->CR |= CR_PG_Set;
 1057              		.loc 1 818 0
 1058 001c 2B69     		ldr	r3, [r5, #16]
 1059 001e 43F00103 		orr	r3, r3, #1
 1060 0022 2B61     		str	r3, [r5, #16]
 820:../Libraries//STM32F10x_StdPeriph_Driver/src/stm32f10x_flash.c ****     *(__IO uint16_t*)Address = (uint16_t)Data;
 1061              		.loc 1 820 0
 1062 0024 B3B2     		uxth	r3, r6
 1063 0026 2380     		strh	r3, [r4, #0]	@ movhi
 822:../Libraries//STM32F10x_StdPeriph_Driver/src/stm32f10x_flash.c ****     status = FLASH_WaitForLastOperation(ProgramTimeout);
 1064              		.loc 1 822 0
 1065 0028 FFF7FEFF 		bl	FLASH_WaitForLastOperation
 1066              	.LVL79:
 824:../Libraries//STM32F10x_StdPeriph_Driver/src/stm32f10x_flash.c ****     if(status == FLASH_COMPLETE)
 1067              		.loc 1 824 0
 1068 002c 0428     		cmp	r0, #4
 1069 002e 08D1     		bne	.L102
 828:../Libraries//STM32F10x_StdPeriph_Driver/src/stm32f10x_flash.c ****       tmp = Address + 2;
 1070              		.loc 1 828 0
 1071 0030 0234     		adds	r4, r4, #2
 1072              	.LVL80:
 1073 0032 0194     		str	r4, [sp, #4]
 1074              	.LVL81:
 830:../Libraries//STM32F10x_StdPeriph_Driver/src/stm32f10x_flash.c ****       *(__IO uint16_t*) tmp = Data >> 16;
 1075              		.loc 1 830 0
 1076 0034 019B     		ldr	r3, [sp, #4]
 1077 0036 360C     		lsrs	r6, r6, #16
 1078              	.LVL82:
 1079 0038 1E80     		strh	r6, [r3, #0]	@ movhi
 833:../Libraries//STM32F10x_StdPeriph_Driver/src/stm32f10x_flash.c ****       status = FLASH_WaitForLastOperation(ProgramTimeout);
 1080              		.loc 1 833 0
 1081 003a 4FF40050 		mov	r0, #8192
 1082              	.LVL83:
 1083 003e FFF7FEFF 		bl	FLASH_WaitForLastOperation
 1084              	.LVL84:
 1085              	.L102:
 841:../Libraries//STM32F10x_StdPeriph_Driver/src/stm32f10x_flash.c ****       FLASH->CR &= CR_PG_Reset;
 1086              		.loc 1 841 0
 1087 0042 2A69     		ldr	r2, [r5, #16]
 1088 0044 41F6FE73 		movw	r3, #8190
 1089 0048 02EA0303 		and	r3, r2, r3
 1090 004c 2B61     		str	r3, [r5, #16]
 1091              	.L101:
 1092              	.LVL85:
 848:../Libraries//STM32F10x_StdPeriph_Driver/src/stm32f10x_flash.c **** }
 1093              		.loc 1 848 0
 1094 004e 7CBD     		pop	{r2, r3, r4, r5, r6, pc}
 1095              	.L104:
 1096              		.align	2
 1097              	.L103:
 1098 0050 00200240 		.word	1073881088
 1099              	.LFE40:
 1101              		.section	.text.FLASH_EraseOptionBytes,"ax",%progbits
 1102              		.align	1
 1103              		.global	FLASH_EraseOptionBytes
 1104              		.thumb
 1105              		.thumb_func
 1107              	FLASH_EraseOptionBytes:
 1108              	.LFB39:
 617:../Libraries//STM32F10x_StdPeriph_Driver/src/stm32f10x_flash.c **** {
 1109              		.loc 1 617 0
 1110              		@ args = 0, pretend = 0, frame = 0
 1111              		@ frame_needed = 0, uses_anonymous_args = 0
 1112              	.LVL86:
 1113 0000 38B5     		push	{r3, r4, r5, lr}
 1114              	.LCFI7:
 623:../Libraries//STM32F10x_StdPeriph_Driver/src/stm32f10x_flash.c ****   if(FLASH_GetReadOutProtectionStatus() != RESET)
 1115              		.loc 1 623 0
 1116 0002 FFF7FEFF 		bl	FLASH_GetReadOutProtectionStatus
 618:../Libraries//STM32F10x_StdPeriph_Driver/src/stm32f10x_flash.c ****   uint16_t rdptmp = RDP_Key;
 1117              		.loc 1 618 0
 1118 0006 0028     		cmp	r0, #0
 1119 0008 0CBF     		ite	eq
 1120 000a A525     		moveq	r5, #165
 1121 000c 0025     		movne	r5, #0
 1122              	.LVL87:
 629:../Libraries//STM32F10x_StdPeriph_Driver/src/stm32f10x_flash.c ****   status = FLASH_WaitForLastOperation(EraseTimeout);
 1123              		.loc 1 629 0
 1124 000e 4FF43020 		mov	r0, #720896
 1125 0012 FFF7FEFF 		bl	FLASH_WaitForLastOperation
 1126              	.LVL88:
 630:../Libraries//STM32F10x_StdPeriph_Driver/src/stm32f10x_flash.c ****   if(status == FLASH_COMPLETE)
 1127              		.loc 1 630 0
 1128 0016 0428     		cmp	r0, #4
 1129 0018 33D1     		bne	.L107
 633:../Libraries//STM32F10x_StdPeriph_Driver/src/stm32f10x_flash.c ****     FLASH->OPTKEYR = FLASH_KEY1;
 1130              		.loc 1 633 0
 1131 001a 1A4C     		ldr	r4, .L110
 1132 001c 1A4B     		ldr	r3, .L110+4
 640:../Libraries//STM32F10x_StdPeriph_Driver/src/stm32f10x_flash.c ****     status = FLASH_WaitForLastOperation(EraseTimeout);
 1133              		.loc 1 640 0
 1134 001e 4FF43020 		mov	r0, #720896
 1135              	.LVL89:
 633:../Libraries//STM32F10x_StdPeriph_Driver/src/stm32f10x_flash.c ****     FLASH->OPTKEYR = FLASH_KEY1;
 1136              		.loc 1 633 0
 1137 0022 A360     		str	r3, [r4, #8]
 634:../Libraries//STM32F10x_StdPeriph_Driver/src/stm32f10x_flash.c ****     FLASH->OPTKEYR = FLASH_KEY2;
 1138              		.loc 1 634 0
 1139 0024 194B     		ldr	r3, .L110+8
 1140 0026 A360     		str	r3, [r4, #8]
 637:../Libraries//STM32F10x_StdPeriph_Driver/src/stm32f10x_flash.c ****     FLASH->CR |= CR_OPTER_Set;
 1141              		.loc 1 637 0
 1142 0028 2369     		ldr	r3, [r4, #16]
 1143 002a 43F02003 		orr	r3, r3, #32
 1144 002e 2361     		str	r3, [r4, #16]
 638:../Libraries//STM32F10x_StdPeriph_Driver/src/stm32f10x_flash.c ****     FLASH->CR |= CR_STRT_Set;
 1145              		.loc 1 638 0
 1146 0030 2369     		ldr	r3, [r4, #16]
 1147 0032 43F04003 		orr	r3, r3, #64
 1148 0036 2361     		str	r3, [r4, #16]
 640:../Libraries//STM32F10x_StdPeriph_Driver/src/stm32f10x_flash.c ****     status = FLASH_WaitForLastOperation(EraseTimeout);
 1149              		.loc 1 640 0
 1150 0038 FFF7FEFF 		bl	FLASH_WaitForLastOperation
 1151              	.LVL90:
 642:../Libraries//STM32F10x_StdPeriph_Driver/src/stm32f10x_flash.c ****     if(status == FLASH_COMPLETE)
 1152              		.loc 1 642 0
 1153 003c 0428     		cmp	r0, #4
 1154 003e 18D1     		bne	.L108
 645:../Libraries//STM32F10x_StdPeriph_Driver/src/stm32f10x_flash.c ****       FLASH->CR &= CR_OPTER_Reset;
 1155              		.loc 1 645 0
 1156 0040 2269     		ldr	r2, [r4, #16]
 1157 0042 41F6DF73 		movw	r3, #8159
 1158 0046 02EA0303 		and	r3, r2, r3
 1159 004a 2361     		str	r3, [r4, #16]
 648:../Libraries//STM32F10x_StdPeriph_Driver/src/stm32f10x_flash.c ****       FLASH->CR |= CR_OPTPG_Set;
 1160              		.loc 1 648 0
 1161 004c 2369     		ldr	r3, [r4, #16]
 652:../Libraries//STM32F10x_StdPeriph_Driver/src/stm32f10x_flash.c ****       status = FLASH_WaitForLastOperation(ProgramTimeout);
 1162              		.loc 1 652 0
 1163 004e 4FF40050 		mov	r0, #8192
 1164              	.LVL91:
 648:../Libraries//STM32F10x_StdPeriph_Driver/src/stm32f10x_flash.c ****       FLASH->CR |= CR_OPTPG_Set;
 1165              		.loc 1 648 0
 1166 0052 43F01003 		orr	r3, r3, #16
 1167 0056 2361     		str	r3, [r4, #16]
 650:../Libraries//STM32F10x_StdPeriph_Driver/src/stm32f10x_flash.c ****       OB->RDP = (uint16_t)rdptmp; 
 1168              		.loc 1 650 0
 1169 0058 0D4B     		ldr	r3, .L110+12
 1170 005a 1D80     		strh	r5, [r3, #0]	@ movhi
 652:../Libraries//STM32F10x_StdPeriph_Driver/src/stm32f10x_flash.c ****       status = FLASH_WaitForLastOperation(ProgramTimeout);
 1171              		.loc 1 652 0
 1172 005c FFF7FEFF 		bl	FLASH_WaitForLastOperation
 1173              	.LVL92:
 654:../Libraries//STM32F10x_StdPeriph_Driver/src/stm32f10x_flash.c ****       if(status != FLASH_TIMEOUT)
 1174              		.loc 1 654 0
 1175 0060 0528     		cmp	r0, #5
 1176 0062 0ED0     		beq	.L107
 657:../Libraries//STM32F10x_StdPeriph_Driver/src/stm32f10x_flash.c ****         FLASH->CR &= CR_OPTPG_Reset;
 1177              		.loc 1 657 0
 1178 0064 2269     		ldr	r2, [r4, #16]
 1179 0066 41F6EF73 		movw	r3, #8175
 1180 006a 02EA0303 		and	r3, r2, r3
 1181 006e 2361     		str	r3, [r4, #16]
 1182 0070 38BD     		pop	{r3, r4, r5, pc}
 1183              	.L108:
 662:../Libraries//STM32F10x_StdPeriph_Driver/src/stm32f10x_flash.c ****       if (status != FLASH_TIMEOUT)
 1184              		.loc 1 662 0
 1185 0072 0528     		cmp	r0, #5
 1186 0074 05D0     		beq	.L107
 665:../Libraries//STM32F10x_StdPeriph_Driver/src/stm32f10x_flash.c ****         FLASH->CR &= CR_OPTPG_Reset;
 1187              		.loc 1 665 0
 1188 0076 2269     		ldr	r2, [r4, #16]
 1189 0078 41F6EF73 		movw	r3, #8175
 1190 007c 02EA0303 		and	r3, r2, r3
 1191 0080 2361     		str	r3, [r4, #16]
 1192              	.LVL93:
 1193              	.L107:
 671:../Libraries//STM32F10x_StdPeriph_Driver/src/stm32f10x_flash.c **** }
 1194              		.loc 1 671 0
 1195 0082 38BD     		pop	{r3, r4, r5, pc}
 1196              	.L111:
 1197              		.align	2
 1198              	.L110:
 1199 0084 00200240 		.word	1073881088
 1200 0088 23016745 		.word	1164378403
 1201 008c AB89EFCD 		.word	-839939669
 1202 0090 00F8FF1F 		.word	536868864
 1203              	.LFE39:
 1205              		.section	.text.FLASH_EraseAllPages,"ax",%progbits
 1206              		.align	1
 1207              		.global	FLASH_EraseAllPages
 1208              		.thumb
 1209              		.thumb_func
 1211              	FLASH_EraseAllPages:
 1212              	.LFB37:
 493:../Libraries//STM32F10x_StdPeriph_Driver/src/stm32f10x_flash.c **** {
 1213              		.loc 1 493 0
 1214              		@ args = 0, pretend = 0, frame = 0
 1215              		@ frame_needed = 0, uses_anonymous_args = 0
 1216              	.LVL94:
 1217 0000 10B5     		push	{r4, lr}
 1218              	.LCFI8:
 526:../Libraries//STM32F10x_StdPeriph_Driver/src/stm32f10x_flash.c ****   status = FLASH_WaitForLastOperation(EraseTimeout);
 1219              		.loc 1 526 0
 1220 0002 4FF43020 		mov	r0, #720896
 1221 0006 FFF7FEFF 		bl	FLASH_WaitForLastOperation
 1222              	.LVL95:
 527:../Libraries//STM32F10x_StdPeriph_Driver/src/stm32f10x_flash.c ****   if(status == FLASH_COMPLETE)
 1223              		.loc 1 527 0
 1224 000a 0428     		cmp	r0, #4
 1225 000c 12D1     		bne	.L113
 530:../Libraries//STM32F10x_StdPeriph_Driver/src/stm32f10x_flash.c ****      FLASH->CR |= CR_MER_Set;
 1226              		.loc 1 530 0
 1227 000e 0A4C     		ldr	r4, .L114
 534:../Libraries//STM32F10x_StdPeriph_Driver/src/stm32f10x_flash.c ****     status = FLASH_WaitForLastOperation(EraseTimeout);
 1228              		.loc 1 534 0
 1229 0010 4FF43020 		mov	r0, #720896
 1230              	.LVL96:
 530:../Libraries//STM32F10x_StdPeriph_Driver/src/stm32f10x_flash.c ****      FLASH->CR |= CR_MER_Set;
 1231              		.loc 1 530 0
 1232 0014 2369     		ldr	r3, [r4, #16]
 1233 0016 43F00403 		orr	r3, r3, #4
 1234 001a 2361     		str	r3, [r4, #16]
 531:../Libraries//STM32F10x_StdPeriph_Driver/src/stm32f10x_flash.c ****      FLASH->CR |= CR_STRT_Set;
 1235              		.loc 1 531 0
 1236 001c 2369     		ldr	r3, [r4, #16]
 1237 001e 43F04003 		orr	r3, r3, #64
 1238 0022 2361     		str	r3, [r4, #16]
 534:../Libraries//STM32F10x_StdPeriph_Driver/src/stm32f10x_flash.c ****     status = FLASH_WaitForLastOperation(EraseTimeout);
 1239              		.loc 1 534 0
 1240 0024 FFF7FEFF 		bl	FLASH_WaitForLastOperation
 1241              	.LVL97:
 537:../Libraries//STM32F10x_StdPeriph_Driver/src/stm32f10x_flash.c ****     FLASH->CR &= CR_MER_Reset;
 1242              		.loc 1 537 0
 1243 0028 2269     		ldr	r2, [r4, #16]
 1244 002a 41F6FB73 		movw	r3, #8187
 1245 002e 02EA0303 		and	r3, r2, r3
 1246 0032 2361     		str	r3, [r4, #16]
 1247              	.LVL98:
 1248              	.L113:
 543:../Libraries//STM32F10x_StdPeriph_Driver/src/stm32f10x_flash.c **** }
 1249              		.loc 1 543 0
 1250 0034 10BD     		pop	{r4, pc}
 1251              	.L115:
 1252 0036 00BF     		.align	2
 1253              	.L114:
 1254 0038 00200240 		.word	1073881088
 1255              	.LFE37:
 1257              		.section	.text.FLASH_ErasePage,"ax",%progbits
 1258              		.align	1
 1259              		.global	FLASH_ErasePage
 1260              		.thumb
 1261              		.thumb_func
 1263              	FLASH_ErasePage:
 1264              	.LFB36:
 420:../Libraries//STM32F10x_StdPeriph_Driver/src/stm32f10x_flash.c **** {
 1265              		.loc 1 420 0
 1266              		@ args = 0, pretend = 0, frame = 0
 1267              		@ frame_needed = 0, uses_anonymous_args = 0
 1268              	.LVL99:
 1269 0000 38B5     		push	{r3, r4, r5, lr}
 1270              	.LCFI9:
 420:../Libraries//STM32F10x_StdPeriph_Driver/src/stm32f10x_flash.c **** {
 1271              		.loc 1 420 0
 1272 0002 0546     		mov	r5, r0
 464:../Libraries//STM32F10x_StdPeriph_Driver/src/stm32f10x_flash.c ****   status = FLASH_WaitForLastOperation(EraseTimeout);
 1273              		.loc 1 464 0
 1274 0004 4FF43020 		mov	r0, #720896
 1275              	.LVL100:
 1276 0008 FFF7FEFF 		bl	FLASH_WaitForLastOperation
 1277              	.LVL101:
 466:../Libraries//STM32F10x_StdPeriph_Driver/src/stm32f10x_flash.c ****   if(status == FLASH_COMPLETE)
 1278              		.loc 1 466 0
 1279 000c 0428     		cmp	r0, #4
 1280 000e 13D1     		bne	.L117
 469:../Libraries//STM32F10x_StdPeriph_Driver/src/stm32f10x_flash.c ****     FLASH->CR|= CR_PER_Set;
 1281              		.loc 1 469 0
 1282 0010 0A4C     		ldr	r4, .L118
 474:../Libraries//STM32F10x_StdPeriph_Driver/src/stm32f10x_flash.c ****     status = FLASH_WaitForLastOperation(EraseTimeout);
 1283              		.loc 1 474 0
 1284 0012 4FF43020 		mov	r0, #720896
 1285              	.LVL102:
 469:../Libraries//STM32F10x_StdPeriph_Driver/src/stm32f10x_flash.c ****     FLASH->CR|= CR_PER_Set;
 1286              		.loc 1 469 0
 1287 0016 2369     		ldr	r3, [r4, #16]
 1288 0018 43F00203 		orr	r3, r3, #2
 1289 001c 2361     		str	r3, [r4, #16]
 470:../Libraries//STM32F10x_StdPeriph_Driver/src/stm32f10x_flash.c ****     FLASH->AR = Page_Address; 
 1290              		.loc 1 470 0
 1291 001e 6561     		str	r5, [r4, #20]
 471:../Libraries//STM32F10x_StdPeriph_Driver/src/stm32f10x_flash.c ****     FLASH->CR|= CR_STRT_Set;
 1292              		.loc 1 471 0
 1293 0020 2369     		ldr	r3, [r4, #16]
 1294 0022 43F04003 		orr	r3, r3, #64
 1295 0026 2361     		str	r3, [r4, #16]
 474:../Libraries//STM32F10x_StdPeriph_Driver/src/stm32f10x_flash.c ****     status = FLASH_WaitForLastOperation(EraseTimeout);
 1296              		.loc 1 474 0
 1297 0028 FFF7FEFF 		bl	FLASH_WaitForLastOperation
 1298              	.LVL103:
 477:../Libraries//STM32F10x_StdPeriph_Driver/src/stm32f10x_flash.c ****     FLASH->CR &= CR_PER_Reset;
 1299              		.loc 1 477 0
 1300 002c 2269     		ldr	r2, [r4, #16]
 1301 002e 41F6FD73 		movw	r3, #8189
 1302 0032 02EA0303 		and	r3, r2, r3
 1303 0036 2361     		str	r3, [r4, #16]
 1304              	.LVL104:
 1305              	.L117:
 483:../Libraries//STM32F10x_StdPeriph_Driver/src/stm32f10x_flash.c **** }
 1306              		.loc 1 483 0
 1307 0038 38BD     		pop	{r3, r4, r5, pc}
 1308              	.L119:
 1309 003a 00BF     		.align	2
 1310              	.L118:
 1311 003c 00200240 		.word	1073881088
 1312              	.LFE36:
 1314              		.section	.text.FLASH_WaitForLastBank1Operation,"ax",%progbits
 1315              		.align	1
 1316              		.global	FLASH_WaitForLastBank1Operation
 1317              		.thumb
 1318              		.thumb_func
 1320              	FLASH_WaitForLastBank1Operation:
 1321              	.LFB56:
1614:../Libraries//STM32F10x_StdPeriph_Driver/src/stm32f10x_flash.c **** 
1615:../Libraries//STM32F10x_StdPeriph_Driver/src/stm32f10x_flash.c **** /**
1616:../Libraries//STM32F10x_StdPeriph_Driver/src/stm32f10x_flash.c ****   * @brief  Waits for a Flash operation on Bank1 to complete or a TIMEOUT to occur.
1617:../Libraries//STM32F10x_StdPeriph_Driver/src/stm32f10x_flash.c ****   * @note   This function can be used for all STM32F10x devices, 
1618:../Libraries//STM32F10x_StdPeriph_Driver/src/stm32f10x_flash.c ****   *         it is equivalent to FLASH_WaitForLastOperation.
1619:../Libraries//STM32F10x_StdPeriph_Driver/src/stm32f10x_flash.c ****   * @param  Timeout: FLASH programming Timeout
1620:../Libraries//STM32F10x_StdPeriph_Driver/src/stm32f10x_flash.c ****   * @retval FLASH Status: The returned value can be: FLASH_ERROR_PG,
1621:../Libraries//STM32F10x_StdPeriph_Driver/src/stm32f10x_flash.c ****   *         FLASH_ERROR_WRP, FLASH_COMPLETE or FLASH_TIMEOUT.
1622:../Libraries//STM32F10x_StdPeriph_Driver/src/stm32f10x_flash.c ****   */
1623:../Libraries//STM32F10x_StdPeriph_Driver/src/stm32f10x_flash.c **** FLASH_Status FLASH_WaitForLastBank1Operation(uint32_t Timeout)
1624:../Libraries//STM32F10x_StdPeriph_Driver/src/stm32f10x_flash.c **** { 
 1322              		.loc 1 1624 0
 1323              		@ args = 0, pretend = 0, frame = 0
 1324              		@ frame_needed = 0, uses_anonymous_args = 0
 1325              	.LVL105:
 1326 0000 10B5     		push	{r4, lr}
 1327              	.LCFI10:
 1328              		.loc 1 1624 0
 1329 0002 0446     		mov	r4, r0
1625:../Libraries//STM32F10x_StdPeriph_Driver/src/stm32f10x_flash.c ****   FLASH_Status status = FLASH_COMPLETE;
1626:../Libraries//STM32F10x_StdPeriph_Driver/src/stm32f10x_flash.c ****    
1627:../Libraries//STM32F10x_StdPeriph_Driver/src/stm32f10x_flash.c ****   /* Check for the Flash Status */
1628:../Libraries//STM32F10x_StdPeriph_Driver/src/stm32f10x_flash.c ****   status = FLASH_GetBank1Status();
 1330              		.loc 1 1628 0
 1331 0004 FFF7FEFF 		bl	FLASH_GetBank1Status
 1332              	.LVL106:
1629:../Libraries//STM32F10x_StdPeriph_Driver/src/stm32f10x_flash.c ****   /* Wait for a Flash operation to complete or a TIMEOUT to occur */
1630:../Libraries//STM32F10x_StdPeriph_Driver/src/stm32f10x_flash.c ****   while((status == FLASH_FLAG_BANK1_BSY) && (Timeout != 0x00))
 1333              		.loc 1 1630 0
 1334 0008 02E0     		b	.L121
 1335              	.L123:
1631:../Libraries//STM32F10x_StdPeriph_Driver/src/stm32f10x_flash.c ****   {
1632:../Libraries//STM32F10x_StdPeriph_Driver/src/stm32f10x_flash.c ****     status = FLASH_GetBank1Status();
 1336              		.loc 1 1632 0
 1337 000a FFF7FEFF 		bl	FLASH_GetBank1Status
 1338              	.LVL107:
1633:../Libraries//STM32F10x_StdPeriph_Driver/src/stm32f10x_flash.c ****     Timeout--;
 1339              		.loc 1 1633 0
 1340 000e 013C     		subs	r4, r4, #1
 1341              	.LVL108:
 1342              	.L121:
1630:../Libraries//STM32F10x_StdPeriph_Driver/src/stm32f10x_flash.c ****   while((status == FLASH_FLAG_BANK1_BSY) && (Timeout != 0x00))
 1343              		.loc 1 1630 0 discriminator 1
 1344 0010 0128     		cmp	r0, #1
 1345 0012 03D1     		bne	.L122
1630:../Libraries//STM32F10x_StdPeriph_Driver/src/stm32f10x_flash.c ****   while((status == FLASH_FLAG_BANK1_BSY) && (Timeout != 0x00))
 1346              		.loc 1 1630 0 is_stmt 0 discriminator 2
 1347 0014 002C     		cmp	r4, #0
 1348 0016 F8D1     		bne	.L123
1634:../Libraries//STM32F10x_StdPeriph_Driver/src/stm32f10x_flash.c ****   }
1635:../Libraries//STM32F10x_StdPeriph_Driver/src/stm32f10x_flash.c ****   if(Timeout == 0x00 )
1636:../Libraries//STM32F10x_StdPeriph_Driver/src/stm32f10x_flash.c ****   {
1637:../Libraries//STM32F10x_StdPeriph_Driver/src/stm32f10x_flash.c ****     status = FLASH_TIMEOUT;
 1349              		.loc 1 1637 0 is_stmt 1
 1350 0018 0430     		adds	r0, r0, #4
 1351              	.LVL109:
 1352 001a 10BD     		pop	{r4, pc}
 1353              	.LVL110:
 1354              	.L122:
 1355 001c 002C     		cmp	r4, #0
 1356 001e 08BF     		it	eq
 1357 0020 0520     		moveq	r0, #5
 1358              	.LVL111:
1638:../Libraries//STM32F10x_StdPeriph_Driver/src/stm32f10x_flash.c ****   }
1639:../Libraries//STM32F10x_StdPeriph_Driver/src/stm32f10x_flash.c ****   /* Return the operation status */
1640:../Libraries//STM32F10x_StdPeriph_Driver/src/stm32f10x_flash.c ****   return status;
1641:../Libraries//STM32F10x_StdPeriph_Driver/src/stm32f10x_flash.c **** }
 1359              		.loc 1 1641 0
 1360 0022 10BD     		pop	{r4, pc}
 1361              	.LFE56:
 1363              		.section	.text.FLASH_EraseAllBank1Pages,"ax",%progbits
 1364              		.align	1
 1365              		.global	FLASH_EraseAllBank1Pages
 1366              		.thumb
 1367              		.thumb_func
 1369              	FLASH_EraseAllBank1Pages:
 1370              	.LFB38:
 556:../Libraries//STM32F10x_StdPeriph_Driver/src/stm32f10x_flash.c **** {
 1371              		.loc 1 556 0
 1372              		@ args = 0, pretend = 0, frame = 0
 1373              		@ frame_needed = 0, uses_anonymous_args = 0
 1374              	.LVL112:
 1375 0000 10B5     		push	{r4, lr}
 1376              	.LCFI11:
 559:../Libraries//STM32F10x_StdPeriph_Driver/src/stm32f10x_flash.c ****   status = FLASH_WaitForLastBank1Operation(EraseTimeout);
 1377              		.loc 1 559 0
 1378 0002 4FF43020 		mov	r0, #720896
 1379 0006 FFF7FEFF 		bl	FLASH_WaitForLastBank1Operation
 1380              	.LVL113:
 561:../Libraries//STM32F10x_StdPeriph_Driver/src/stm32f10x_flash.c ****   if(status == FLASH_COMPLETE)
 1381              		.loc 1 561 0
 1382 000a 0428     		cmp	r0, #4
 1383 000c 12D1     		bne	.L127
 564:../Libraries//STM32F10x_StdPeriph_Driver/src/stm32f10x_flash.c ****      FLASH->CR |= CR_MER_Set;
 1384              		.loc 1 564 0
 1385 000e 0A4C     		ldr	r4, .L128
 568:../Libraries//STM32F10x_StdPeriph_Driver/src/stm32f10x_flash.c ****     status = FLASH_WaitForLastBank1Operation(EraseTimeout);
 1386              		.loc 1 568 0
 1387 0010 4FF43020 		mov	r0, #720896
 1388              	.LVL114:
 564:../Libraries//STM32F10x_StdPeriph_Driver/src/stm32f10x_flash.c ****      FLASH->CR |= CR_MER_Set;
 1389              		.loc 1 564 0
 1390 0014 2369     		ldr	r3, [r4, #16]
 1391 0016 43F00403 		orr	r3, r3, #4
 1392 001a 2361     		str	r3, [r4, #16]
 565:../Libraries//STM32F10x_StdPeriph_Driver/src/stm32f10x_flash.c ****      FLASH->CR |= CR_STRT_Set;
 1393              		.loc 1 565 0
 1394 001c 2369     		ldr	r3, [r4, #16]
 1395 001e 43F04003 		orr	r3, r3, #64
 1396 0022 2361     		str	r3, [r4, #16]
 568:../Libraries//STM32F10x_StdPeriph_Driver/src/stm32f10x_flash.c ****     status = FLASH_WaitForLastBank1Operation(EraseTimeout);
 1397              		.loc 1 568 0
 1398 0024 FFF7FEFF 		bl	FLASH_WaitForLastBank1Operation
 1399              	.LVL115:
 571:../Libraries//STM32F10x_StdPeriph_Driver/src/stm32f10x_flash.c ****     FLASH->CR &= CR_MER_Reset;
 1400              		.loc 1 571 0
 1401 0028 2269     		ldr	r2, [r4, #16]
 1402 002a 41F6FB73 		movw	r3, #8187
 1403 002e 02EA0303 		and	r3, r2, r3
 1404 0032 2361     		str	r3, [r4, #16]
 1405              	.LVL116:
 1406              	.L127:
 575:../Libraries//STM32F10x_StdPeriph_Driver/src/stm32f10x_flash.c **** }
 1407              		.loc 1 575 0
 1408 0034 10BD     		pop	{r4, pc}
 1409              	.L129:
 1410 0036 00BF     		.align	2
 1411              	.L128:
 1412 0038 00200240 		.word	1073881088
 1413              	.LFE38:
 1787              	.Letext0: